EXPORTS
    _ZN2sp11BasicObjectD0Ev @1
    _ZN2sp11BasicObjectD1Ev @2
    _ZN2sp12deleteDeviceEv @3
    _ZN2sp13ThreadManager5pauseEv @4
    _ZN2sp13ThreadManager6resumeEv @5
    _ZN2sp13ThreadManagerC1EPFmPvES1_b @6
    _ZN2sp13ThreadManagerC2EPFmPvES1_b @7
    _ZN2sp13ThreadManagerD1Ev @8
    _ZN2sp13ThreadManagerD2Ev @9
    _ZN2sp15CriticalSection4lockEv @10
    _ZN2sp15CriticalSection6unlockEv @11
    _ZN2sp15CriticalSectionC1Ev @12
    _ZN2sp15CriticalSectionC2Ev @13
    _ZN2sp15CriticalSectionD1Ev @14
    _ZN2sp15CriticalSectionD2Ev @15
    _ZN2sp15SoftPixelDevice12setFrameRateEj @16
    _ZN2sp15SoftPixelDevice14setWindowTitleERKNS_2io6stringIcEE @17
    _ZN2sp15SoftPixelDevice15getMillisecondsEv @18
    _ZN2sp15SoftPixelDevice17setWindowPositionERKNS_3dim7point2dIiEE @19
    _ZN2sp15SoftPixelDevice18createRenderSystemEv @20
    _ZN2sp15SoftPixelDevice18printConsoleHeaderEv @21
    _ZN2sp15SoftPixelDevice19setActiveSceneGraphEPNS_5scene10SceneGraphE @22
    _ZN2sp15SoftPixelDevice20manipulateScreenSizeERKNS_3dim6size2dIiEE @23
    _ZN2sp15SoftPixelDevice20resetCursorSpeedLockEv @24
    _ZN2sp15SoftPixelDevice20updateDeviceSettingsERKNS_3dim6size2dIiEEibRKNS_12SDeviceFlagsEPv @25
    _ZN2sp15SoftPixelDevice21deleteResourceDevicesEv @26
    _ZN2sp15SoftPixelDevice22autoDetectRenderSystemEv @27
    _ZN2sp15SoftPixelDevice4beepEjj @28
    _ZN2sp15SoftPixelDevice5sleepEj @29
    _ZN2sp15SoftPixelDevice6getFPSEv @30
    _ZN2sp15SoftPixelDevice7getTimeENS_10ETimeTypesE @31
    _ZN2sp15SoftPixelDevice7getTimeEv @32
    _ZN2sp15SoftPixelDeviceC1ENS_5video14ERenderSystemsERKNS_3dim6size2dIiEEiRKNS_2io6stringIcEEbRKNS_12SDeviceFlagsE @33
    _ZN2sp15SoftPixelDeviceC2ENS_5video14ERenderSystemsERKNS_3dim6size2dIiEEiRKNS_2io6stringIcEEbRKNS_12SDeviceFlagsE @34
    _ZN2sp15SoftPixelDeviceD0Ev @35
    _ZN2sp15SoftPixelDeviceD1Ev @36
    _ZN2sp15SoftPixelDeviceD2Ev @37
    _ZN2sp16spWindowCallbackEP6HWND__jjl@16 @38
    _ZN2sp20SoftPixelDeviceWin3211updateEventEv @39
    _ZN2sp20SoftPixelDeviceWin3212deleteDeviceEv @40
    _ZN2sp20SoftPixelDeviceWin3214setWindowTitleERKNS_2io6stringIcEE @41
    _ZN2sp20SoftPixelDeviceWin3215getDropFilenameEv @42
    _ZN2sp20SoftPixelDeviceWin3217setWindowPositionERKNS_3dim7point2dIiEE @43
    _ZN2sp20SoftPixelDeviceWin3220updateDeviceSettingsERKNS_3dim6size2dIiEEibRKNS_12SDeviceFlagsEPv @44
    _ZN2sp20SoftPixelDeviceWin324beepEjj @45
    _ZN2sp20SoftPixelDeviceWin325sleepEj @46
    _ZN2sp20SoftPixelDeviceWin32C1ENS_5video14ERenderSystemsERKNS_3dim6size2dIiEEiRKNS_2io6stringIcEEbRKNS_12SDeviceFlagsEPv @47
    _ZN2sp20SoftPixelDeviceWin32C2ENS_5video14ERenderSystemsERKNS_3dim6size2dIiEEiRKNS_2io6stringIcEEbRKNS_12SDeviceFlagsEPv @48
    _ZN2sp20SoftPixelDeviceWin32D0Ev @49
    _ZN2sp20SoftPixelDeviceWin32D1Ev @50
    _ZN2sp20SoftPixelDeviceWin32D2Ev @51
    _ZN2sp20createGraphicsDeviceENS_5video14ERenderSystemsERKNS_3dim6size2dIiEEiNS_2io6stringIcEEbRKNS_12SDeviceFlagsEPv @52
    _ZN2sp2io10FileSystem10createFileERKNS0_6stringIcEE @53
    _ZN2sp2io10FileSystem10deleteFileERKNS0_6stringIcEE @54
    _ZN2sp2io10FileSystem15ResourceConfig_E @55 DATA
    _ZN2sp2io10FileSystem15createDirectoryERKNS0_6stringIcEE @56
    _ZN2sp2io10FileSystem15deleteDirectoryERKNS0_6stringIcEE @57
    _ZN2sp2io10FileSystem16readResourceFileERKNS0_6stringIcEE @58
    _ZN2sp2io10FileSystem17getResourceConfigEv @59
    _ZN2sp2io10FileSystem17setResourceConfigENS0_16EResourceConfigsE @60
    _ZN2sp2io10FileSystem19setCurrentDirectoryERKNS0_6stringIcEE @61
    _ZN2sp2io10FileSystem8copyFileERKNS0_6stringIcEES5_ @62
    _ZN2sp2io10FileSystem8moveFileERKNS0_6stringIcEES5_ @63
    _ZN2sp2io10FileSystem8openFileENS0_10EFileTypesE @64
    _ZN2sp2io10FileSystem8openFileENS0_15EFilePermissionE @65
    _ZN2sp2io10FileSystem8openFileERKNS0_6stringIcEENS0_15EFilePermissionE @66
    _ZN2sp2io10FileSystem8readFileERKNS0_6stringIcEE @67
    _ZN2sp2io10FileSystem9closeFileERPNS0_4FileE @68
    _ZN2sp2io10FileSystemC1Ev @69
    _ZN2sp2io10FileSystemC2Ev @70
    _ZN2sp2io10FileSystemD1Ev @71
    _ZN2sp2io10FileSystemD2Ev @72
    _ZN2sp2io12InputControl11keyReleasedENS0_9EKeyCodesE @73
    _ZN2sp2io12InputControl13mouseReleasedENS0_14EMouseKeyCodesE @74
    _ZN2sp2io12InputControl13setMouseWheelEs @75
    _ZN2sp2io12InputControl14getCursorSpeedEv @76
    _ZN2sp2io12InputControl16setCursorVisibleEb @77
    _ZN2sp2io12InputControl17setCursorPositionERKNS_3dim7point2dIiEEb @78
    _ZN2sp2io12InputControl6keyHitENS0_9EKeyCodesE @79
    _ZN2sp2io12InputControl7keyDownENS0_9EKeyCodesE @80
    _ZN2sp2io12InputControl8mouseHitENS0_14EMouseKeyCodesE @81
    _ZN2sp2io12InputControl9mouseDownENS0_14EMouseKeyCodesE @82
    _ZN2sp2io12InputControlC1Ev @83
    _ZN2sp2io12InputControlC2Ev @84
    _ZN2sp2io12InputControlD1Ev @85
    _ZN2sp2io12InputControlD2Ev @86
    _ZN2sp2io12OSInformator14allocOSVersionEv @87
    _ZN2sp2io12OSInformator16setClipboardTextERKNS0_6stringIcEE @88
    _ZN2sp2io12OSInformatorC1Ev @89
    _ZN2sp2io12OSInformatorC2Ev @90
    _ZN2sp2io12OSInformatorD1Ev @91
    _ZN2sp2io12OSInformatorD2Ev @92
    _ZN2sp2io21BaseFileFormatHandlerD0Ev @93
    _ZN2sp2io21BaseFileFormatHandlerD1Ev @94
    _ZN2sp2io21BaseFileFormatHandlerD2Ev @95
    _ZN2sp2io3Log11openConsoleERKNS0_6stringIcEE @96
    _ZN2sp2io3Log12clearConsoleEv @97
    _ZN2sp2io3Log12closeConsoleEv @98
    _ZN2sp2io3Log12getTabStringEv @99
    _ZN2sp2io3Log12pauseConsoleEv @100
    _ZN2sp2io3Log12setTabStringERKNS0_6stringIcEE @101
    _ZN2sp2io3Log13getCurrentTabEv @102
    _ZN2sp2io3Log13getTimeFormatEv @103
    _ZN2sp2io3Log13setTimeFormatENS0_15ELogTimeFormatsE @104
    _ZN2sp2io3Log15getFormatedTimeEv @105
    _ZN2sp2io3Log16getOutputContextEv @106
    _ZN2sp2io3Log16setOutputContextEi @107
    _ZN2sp2io3Log18setMessageCallbackERKN5boost8functionIFvRKNS0_6stringIcEEiEEE @108
    _ZN2sp2io3Log4openERKNS0_6stringIcEE @109
    _ZN2sp2io3Log5closeEv @110
    _ZN2sp2io3Log5errorERKNS0_6stringIcEEi @111
    _ZN2sp2io3Log7messageERKNS0_6stringIcEEi @112
    _ZN2sp2io3Log7warningERKNS0_6stringIcEEi @113
    _ZN2sp2io3Log8lowerTabEv @114
    _ZN2sp2io3Log8toStringERKNS_3dim10quaternionE @115
    _ZN2sp2io3Log8toStringERKNS_3dim7matrix2IfEE @116
    _ZN2sp2io3Log8toStringERKNS_3dim7matrix4IfEE @117
    _ZN2sp2io3Log8toStringERKNS_3dim8vector3dIfEE @118
    _ZN2sp2io3Log8toStringERKNS_5video5colorE @119
    _ZN2sp2io3Log8upperTabEv @120
    _ZN2sp2io4File10writeColorERKNS_5video5colorE @121
    _ZN2sp2io4File11writeStringERKNS0_6stringIcEEj @122
    _ZN2sp2io4File12writeStringCERKNS0_6stringIcEEj @123
    _ZN2sp2io4File12writeStringNERKNS0_6stringIcEEj @124
    _ZN2sp2io4File15writeStringDataERKNS0_6stringIcEEj @125
    _ZN2sp2io4FileC1ENS0_10EFileTypesE @126
    _ZN2sp2io4FileC2ENS0_10EFileTypesE @127
    _ZN2sp2io4FileD0Ev @128
    _ZN2sp2io4FileD1Ev @129
    _ZN2sp2io4FileD2Ev @130
    _ZN2sp2io7FileHDD11writeBufferEPKvjj @131
    _ZN2sp2io7FileHDD14getAppRootPathEv @132
    _ZN2sp2io7FileHDD4openERKNS0_6stringIcEENS0_15EFilePermissionE @133
    _ZN2sp2io7FileHDD5closeEv @134
    _ZN2sp2io7FileHDD7setSeekEiNS0_14EFileSeekTypesE @135
    _ZN2sp2io7FileHDD8findFileERKNS0_6stringIcEE @136
    _ZN2sp2io7FileHDD9getHandleEv @137
    _ZN2sp2io7FileHDDC1Ev @138
    _ZN2sp2io7FileHDDC2Ev @139
    _ZN2sp2io7FileHDDD0Ev @140
    _ZN2sp2io7FileHDDD1Ev @141
    _ZN2sp2io7FileHDDD2Ev @142
    _ZN2sp2io7FileRAM11writeBufferEPKvjj @143
    _ZN2sp2io7FileRAM4openERKNS0_6stringIcEENS0_15EFilePermissionE @144
    _ZN2sp2io7FileRAM5closeEv @145
    _ZN2sp2io7FileRAM7setSeekEiNS0_14EFileSeekTypesE @146
    _ZN2sp2io7FileRAM9getHandleEv @147
    _ZN2sp2io7FileRAMC1ERKNS0_6stringIcEE @148
    _ZN2sp2io7FileRAMC1Ev @149
    _ZN2sp2io7FileRAMC2ERKNS0_6stringIcEE @150
    _ZN2sp2io7FileRAMC2Ev @151
    _ZN2sp2io7FileRAMD0Ev @152
    _ZN2sp2io7FileRAMD1Ev @153
    _ZN2sp2io7FileRAMD2Ev @154
    _ZN2sp3gui10GUIManager12removeWindowEPNS0_9GUIWindowE @155
    _ZN2sp3gui10GUIManager13addControllerEPNS0_13GUIControllerEb @156
    _ZN2sp3gui10GUIManager14createArrowTexEv @157
    _ZN2sp3gui10GUIManager16removeControllerEPNS0_13GUIControllerEb @158
    _ZN2sp3gui10GUIManager17createHatchedFaceEv @159
    _ZN2sp3gui10GUIManager22removeParentControllerEPNS0_13GUIControllerE @160
    _ZN2sp3gui10GUIManager4initEv @161
    _ZN2sp3gui10GUIManager5clearEv @162
    _ZN2sp3gui10GUIManager6updateEv @163
    _ZN2sp3gui10GUIManager9addWindowERKNS_3dim7point2dIiEERKNS2_6size2dIiEERKNS_2io6stringIcEEi @164
    _ZN2sp3gui10GUIManagerC1Ev @165
    _ZN2sp3gui10GUIManagerC2Ev @166
    _ZN2sp3gui10GUIManagerD1Ev @167
    _ZN2sp3gui10GUIManagerD2Ev @168
    _ZN2sp3gui11GUIListItem7setTextERKNS_2io6stringIcEE @169
    _ZN2sp3gui11GUIListItemC1Ev @170
    _ZN2sp3gui11GUIListItemC2Ev @171
    _ZN2sp3gui11GUIListItemD0Ev @172
    _ZN2sp3gui11GUIListItemD1Ev @173
    _ZN2sp3gui11GUIListItemD2Ev @174
    _ZN2sp3gui11GUIMenuItem11removeChildEPS1_ @175
    _ZN2sp3gui11GUIMenuItem16ITEMPICK_COLOR_AE @176 DATA
    _ZN2sp3gui11GUIMenuItem16ITEMPICK_COLOR_BE @177 DATA
    _ZN2sp3gui11GUIMenuItem17setColorRecursiveERKNS_5video5colorE @178
    _ZN2sp3gui11GUIMenuItem18updateChildrenSizeEv @179
    _ZN2sp3gui11GUIMenuItem20closeExpansionParentEv @180
    _ZN2sp3gui11GUIMenuItem22closeExpansionChildrenEv @181
    _ZN2sp3gui11GUIMenuItem4drawEv @182
    _ZN2sp3gui11GUIMenuItem4initEv @183
    _ZN2sp3gui11GUIMenuItem5clearEv @184
    _ZN2sp3gui11GUIMenuItem6updateERKNS_3dim7point2dIiEE @185
    _ZN2sp3gui11GUIMenuItem7setTextERKNS_2io6stringIcEE @186
    _ZN2sp3gui11GUIMenuItem8addChildEPS1_ @187
    _ZN2sp3gui11GUIMenuItem8setColorERKNS_5video5colorE @188
    _ZN2sp3gui11GUIMenuItem9setParentEPS1_ @189
    _ZN2sp3gui11GUIMenuItemC1ENS0_14EMenuItemTypesERKNS_2io6stringIcEE @190
    _ZN2sp3gui11GUIMenuItemC2ENS0_14EMenuItemTypesERKNS_2io6stringIcEE @191
    _ZN2sp3gui11GUIMenuItemD0Ev @192
    _ZN2sp3gui11GUIMenuItemD1Ev @193
    _ZN2sp3gui11GUIMenuItemD2Ev @194
    _ZN2sp3gui11GUITreeItem11removeChildEPS1_ @195
    _ZN2sp3gui11GUITreeItem8addChildEPS1_ @196
    _ZN2sp3gui11GUITreeItem9setParentEPS1_ @197
    _ZN2sp3gui11GUITreeItemC1Ev @198
    _ZN2sp3gui11GUITreeItemC2Ev @199
    _ZN2sp3gui11GUITreeItemD1Ev @200
    _ZN2sp3gui11GUITreeItemD2Ev @201
    _ZN2sp3gui12GUIWebGadget11loadContentERKNS_2io6stringIcEEi @202
    _ZN2sp3gui12GUIWebGadget11loadContentERKNS_4tool9SXMLBlockEi @203
    _ZN2sp3gui12GUIWebGadget20createWebsiteContentERKNS_4tool9SXMLBlockE @204
    _ZN2sp3gui12GUIWebGadget21deleteLoadedResourcesEv @205
    _ZN2sp3gui12GUIWebGadget4drawEv @206
    _ZN2sp3gui12GUIWebGadget4initEv @207
    _ZN2sp3gui12GUIWebGadget5clearEv @208
    _ZN2sp3gui12GUIWebGadget6updateEv @209
    _ZN2sp3gui12GUIWebGadget7setFontERKNS_2io6stringIcEEiRKNS_5video5colorEi @210
    _ZN2sp3gui12GUIWebGadgetC1Ev @211
    _ZN2sp3gui12GUIWebGadgetC2Ev @212
    _ZN2sp3gui12GUIWebGadgetD0Ev @213
    _ZN2sp3gui12GUIWebGadgetD1Ev @214
    _ZN2sp3gui12GUIWebGadgetD2Ev @215
    _ZN2sp3gui13GUIController10checkFlagsEv @216
    _ZN2sp3gui13GUIController10foregroundEv @217
    _ZN2sp3gui13GUIController10updateRectEv @218
    _ZN2sp3gui13GUIController11removeChildEPS1_ @219
    _ZN2sp3gui13GUIController11setPositionERKNS_3dim7point2dIiEE @220
    _ZN2sp3gui13GUIController12drawChildrenEv @221
    _ZN2sp3gui13GUIController12updateAlwaysEv @222
    _ZN2sp3gui13GUIController13setupClippingEv @223
    _ZN2sp3gui13GUIController14updateChildrenEv @224
    _ZN2sp3gui13GUIController14updateClippingEv @225
    _ZN2sp3gui13GUIController16updateScrollBarsEPNS0_18GUIScrollbarGadgetES3_ @226
    _ZN2sp3gui13GUIController18checkDefaultUpdateEv @227
    _ZN2sp3gui13GUIController4initEv @228
    _ZN2sp3gui13GUIController5clearEv @229
    _ZN2sp3gui13GUIController5focusEv @230
    _ZN2sp3gui13GUIController7setRectERKNS_3dim6rect2dIiEE @231
    _ZN2sp3gui13GUIController7setSizeERKNS_3dim6size2dIiEE @232
    _ZN2sp3gui13GUIController8addChildEPS1_ @233
    _ZN2sp3gui13GUIController8setFlagsEi @234
    _ZN2sp3gui13GUIController8useFocusEi @235
    _ZN2sp3gui13GUIController9setParentEPS1_ @236
    _ZN2sp3gui13GUIControllerC1ENS0_19EGUIControllerTypesE @237
    _ZN2sp3gui13GUIControllerC2ENS0_19EGUIControllerTypesE @238
    _ZN2sp3gui13GUIControllerD0Ev @239
    _ZN2sp3gui13GUIControllerD1Ev @240
    _ZN2sp3gui13GUIControllerD2Ev @241
    _ZN2sp3gui13GUIListColumnC1Ev @242
    _ZN2sp3gui13GUIListColumnC2Ev @243
    _ZN2sp3gui13GUIListColumnD0Ev @244
    _ZN2sp3gui13GUIListColumnD1Ev @245
    _ZN2sp3gui13GUIListColumnD2Ev @246
    _ZN2sp3gui13GUIListGadget10clearItemsEv @247
    _ZN2sp3gui13GUIListGadget10drawColumnEPNS0_13GUIListColumnEi @248
    _ZN2sp3gui13GUIListGadget10pickColumnERPNS0_13GUIListColumnERb @249
    _ZN2sp3gui13GUIListGadget10removeItemEPNS0_11GUIListItemE @250
    _ZN2sp3gui13GUIListGadget10updateItemEPNS0_11GUIListItemERNS_3dim7point2dIiEE @251
    _ZN2sp3gui13GUIListGadget12clearColumnsEv @252
    _ZN2sp3gui13GUIListGadget12removeColumnEPNS0_13GUIListColumnE @253
    _ZN2sp3gui13GUIListGadget16ITEMPICK_COLOR_AE @254 DATA
    _ZN2sp3gui13GUIListGadget16ITEMPICK_COLOR_BE @255 DATA
    _ZN2sp3gui13GUIListGadget17addDirectoryItemsENS_2io6stringIcEE @256
    _ZN2sp3gui13GUIListGadget4drawEv @257
    _ZN2sp3gui13GUIListGadget4initEv @258
    _ZN2sp3gui13GUIListGadget5clearEv @259
    _ZN2sp3gui13GUIListGadget6updateEv @260
    _ZN2sp3gui13GUIListGadget7addItemERKNS_2io6stringIcEEPNS0_11GUIListItemEbPNS_5video7TextureE @261
    _ZN2sp3gui13GUIListGadget8drawItemEPNS0_11GUIListItemEi @262
    _ZN2sp3gui13GUIListGadget9addColumnERKNS_2io6stringIcEEiPNS_5video7TextureE @263
    _ZN2sp3gui13GUIListGadgetC1Ev @264
    _ZN2sp3gui13GUIListGadgetC2Ev @265
    _ZN2sp3gui13GUIListGadgetD0Ev @266
    _ZN2sp3gui13GUIListGadgetD1Ev @267
    _ZN2sp3gui13GUIListGadgetD2Ev @268
    _ZN2sp3gui13GUITextGadget4drawEv @269
    _ZN2sp3gui13GUITextGadget6updateEv @270
    _ZN2sp3gui13GUITextGadgetC1Ev @271
    _ZN2sp3gui13GUITextGadgetC2Ev @272
    _ZN2sp3gui13GUITextGadgetD0Ev @273
    _ZN2sp3gui13GUITextGadgetD1Ev @274
    _ZN2sp3gui13GUITextGadgetD2Ev @275
    _ZN2sp3gui13GUITreeGadget10clearItemsEv @276
    _ZN2sp3gui13GUITreeGadget10removeItemEPNS0_11GUITreeItemE @277
    _ZN2sp3gui13GUITreeGadget10updateItemEPNS0_11GUITreeItemERNS_3dim7point2dIiEE @278
    _ZN2sp3gui13GUITreeGadget11setExplorerEb @279
    _ZN2sp3gui13GUITreeGadget14drawExpandIconERKNS_3dim7point2dIiEEb @280
    _ZN2sp3gui13GUITreeGadget16ITEMPICK_COLOR_AE @281 DATA
    _ZN2sp3gui13GUITreeGadget16ITEMPICK_COLOR_BE @282 DATA
    _ZN2sp3gui13GUITreeGadget16updateExpandIconERKNS_3dim7point2dIiEEPNS0_11GUITreeItemE @283
    _ZN2sp3gui13GUITreeGadget18addExplorerSubItemEPNS0_11GUITreeItemEPKv @284
    _ZN2sp3gui13GUITreeGadget18createExplorerDirsEPNS0_11GUITreeItemE @285
    _ZN2sp3gui13GUITreeGadget4drawEv @286
    _ZN2sp3gui13GUITreeGadget4initEv @287
    _ZN2sp3gui13GUITreeGadget5clearEv @288
    _ZN2sp3gui13GUITreeGadget6updateEv @289
    _ZN2sp3gui13GUITreeGadget7addItemERKNS_2io6stringIcEEPNS0_11GUITreeItemEPNS_5video7TextureE @290
    _ZN2sp3gui13GUITreeGadget8drawItemEPNS0_11GUITreeItemERNS_3dim7point2dIiEE @291
    _ZN2sp3gui13GUITreeGadgetC1Ev @292
    _ZN2sp3gui13GUITreeGadgetC2Ev @293
    _ZN2sp3gui13GUITreeGadgetD0Ev @294
    _ZN2sp3gui13GUITreeGadgetD1Ev @295
    _ZN2sp3gui13GUITreeGadgetD2Ev @296
    _ZN2sp3gui14GUIBasicObject10drawButtonERKNS_3dim6rect2dIiEERKNS_5video5colorEb @297
    _ZN2sp3gui14GUIBasicObject15drawHatchedFaceERKNS_3dim6rect2dIiEE @298
    _ZN2sp3gui14GUIBasicObject5setIDEj @299
    _ZN2sp3gui14GUIBasicObject7setFontEPNS_5video4FontE @300
    _ZN2sp3gui14GUIBasicObject7setTextERKNS_2io6stringIcEE @301
    _ZN2sp3gui14GUIBasicObject8drawTextENS_3dim7point2dIiEERKNS_2io6stringIcEERKNS_5video5colorEi @302
    _ZN2sp3gui14GUIBasicObject8setColorERKNS_5video5colorE @303
    _ZN2sp3gui14GUIBasicObject9drawFrameERKNS_3dim6rect2dIiEERKNS_5video5colorESA_SA_SA_ @304
    _ZN2sp3gui14GUIBasicObject9drawFrameERKNS_3dim6rect2dIiEERKNS_5video5colorEb @305
    _ZN2sp3gui14GUIBasicObject9sendEventENS0_16EGUIEventObjectsENS0_14EGUIEventTypesE @306
    _ZN2sp3gui14GUIBasicObject9sendEventERKNS0_9SGUIEventE @307
    _ZN2sp3gui14GUIBasicObject9setEnableEb @308
    _ZN2sp3gui14GUIBasicObjectC1Ev @309
    _ZN2sp3gui14GUIBasicObjectC2Ev @310
    _ZN2sp3gui14GUIBasicObjectD0Ev @311
    _ZN2sp3gui14GUIBasicObjectD1Ev @312
    _ZN2sp3gui14GUIBasicObjectD2Ev @313
    _ZN2sp3gui15GUIButtonGadget4drawEv @314
    _ZN2sp3gui15GUIButtonGadget6updateEv @315
    _ZN2sp3gui15GUIButtonGadgetC1Ev @316
    _ZN2sp3gui15GUIButtonGadgetC2Ev @317
    _ZN2sp3gui15GUIButtonGadgetD0Ev @318
    _ZN2sp3gui15GUIButtonGadgetD1Ev @319
    _ZN2sp3gui15GUIButtonGadgetD2Ev @320
    _ZN2sp3gui15GUIStringGadget10drawCursorEi @321
    _ZN2sp3gui15GUIStringGadget10updateTextEv @322
    _ZN2sp3gui15GUIStringGadget11updateInputEv @323
    _ZN2sp3gui15GUIStringGadget12clampViewPosEv @324
    _ZN2sp3gui15GUIStringGadget13updateViewPosEb @325
    _ZN2sp3gui15GUIStringGadget17setCursorPositionEi @326
    _ZN2sp3gui15GUIStringGadget19updateViewPosCursorEv @327
    _ZN2sp3gui15GUIStringGadget4drawEv @328
    _ZN2sp3gui15GUIStringGadget4initEv @329
    _ZN2sp3gui15GUIStringGadget6updateEv @330
    _ZN2sp3gui15GUIStringGadgetC1Ev @331
    _ZN2sp3gui15GUIStringGadgetC2Ev @332
    _ZN2sp3gui15GUIStringGadgetD0Ev @333
    _ZN2sp3gui15GUIStringGadgetD1Ev @334
    _ZN2sp3gui15GUIStringGadgetD2Ev @335
    _ZN2sp3gui16GUIListRootEntry7setTextERKNS_2io6stringIcEE @336
    _ZN2sp3gui16GUIListRootEntryC1Ev @337
    _ZN2sp3gui16GUIListRootEntryC2Ev @338
    _ZN2sp3gui16GUIListRootEntryD0Ev @339
    _ZN2sp3gui16GUIListRootEntryD1Ev @340
    _ZN2sp3gui16GUIListRootEntryD2Ev @341
    _ZN2sp3gui17GUICheckboxGadget12setAutoStateEb @342
    _ZN2sp3gui17GUICheckboxGadget15updateAutoStateEv @343
    _ZN2sp3gui17GUICheckboxGadget4drawEv @344
    _ZN2sp3gui17GUICheckboxGadget6updateEv @345
    _ZN2sp3gui17GUICheckboxGadget8setStateEb @346
    _ZN2sp3gui17GUICheckboxGadgetC1Ev @347
    _ZN2sp3gui17GUICheckboxGadgetC2Ev @348
    _ZN2sp3gui17GUICheckboxGadgetD0Ev @349
    _ZN2sp3gui17GUICheckboxGadgetD1Ev @350
    _ZN2sp3gui17GUICheckboxGadgetD2Ev @351
    _ZN2sp3gui17GUITrackbarGadget10setBarSizeEi @352
    _ZN2sp3gui17GUITrackbarGadget11setStatePosEib @353
    _ZN2sp3gui17GUITrackbarGadget4drawEv @354
    _ZN2sp3gui17GUITrackbarGadget6updateEv @355
    _ZN2sp3gui17GUITrackbarGadget8setRangeEii @356
    _ZN2sp3gui17GUITrackbarGadget8setStateEi @357
    _ZN2sp3gui17GUITrackbarGadgetC1Ev @358
    _ZN2sp3gui17GUITrackbarGadgetC2Ev @359
    _ZN2sp3gui17GUITrackbarGadgetD0Ev @360
    _ZN2sp3gui17GUITrackbarGadgetD1Ev @361
    _ZN2sp3gui17GUITrackbarGadgetD2Ev @362
    _ZN2sp3gui18GUIContainerGadget4drawEv @363
    _ZN2sp3gui18GUIContainerGadget6updateEv @364
    _ZN2sp3gui18GUIContainerGadgetC1Ev @365
    _ZN2sp3gui18GUIContainerGadgetC2Ev @366
    _ZN2sp3gui18GUIContainerGadgetD0Ev @367
    _ZN2sp3gui18GUIContainerGadgetD1Ev @368
    _ZN2sp3gui18GUIContainerGadgetD2Ev @369
    _ZN2sp3gui18GUIScrollbarGadget10updateDragEv @370
    _ZN2sp3gui18GUIScrollbarGadget11updateStateEv @371
    _ZN2sp3gui18GUIScrollbarGadget13drawScrollbarERKNS_3dim6rect2dIiEE @372
    _ZN2sp3gui18GUIScrollbarGadget17updateBarLocationEv @373
    _ZN2sp3gui18GUIScrollbarGadget19drawScrollbarButtonERKNS_3dim6rect2dIiEERKNS3_IfEEi @374
    _ZN2sp3gui18GUIScrollbarGadget4drawEv @375
    _ZN2sp3gui18GUIScrollbarGadget6updateEv @376
    _ZN2sp3gui18GUIScrollbarGadget7setSizeERKNS_3dim6size2dIiEE @377
    _ZN2sp3gui18GUIScrollbarGadget8setRangeEi @378
    _ZN2sp3gui18GUIScrollbarGadget8setStateEi @379
    _ZN2sp3gui18GUIScrollbarGadgetC1Ev @380
    _ZN2sp3gui18GUIScrollbarGadgetC2Ev @381
    _ZN2sp3gui18GUIScrollbarGadgetD0Ev @382
    _ZN2sp3gui18GUIScrollbarGadgetD1Ev @383
    _ZN2sp3gui18GUIScrollbarGadgetD2Ev @384
    _ZN2sp3gui20GUIProgressbarGadget4drawEv @385
    _ZN2sp3gui20GUIProgressbarGadget6updateEv @386
    _ZN2sp3gui20GUIProgressbarGadgetC1Ev @387
    _ZN2sp3gui20GUIProgressbarGadgetC2Ev @388
    _ZN2sp3gui20GUIProgressbarGadgetD0Ev @389
    _ZN2sp3gui20GUIProgressbarGadgetD1Ev @390
    _ZN2sp3gui20GUIProgressbarGadgetD2Ev @391
    _ZN2sp3gui9GUIGadget10drawBgRectERKNS_3dim6rect2dIiEES6_bbi @392
    _ZN2sp3gui9GUIGadgetC1ENS0_11EGUIGadgetsE @393
    _ZN2sp3gui9GUIGadgetC2ENS0_11EGUIGadgetsE @394
    _ZN2sp3gui9GUIGadgetD0Ev @395
    _ZN2sp3gui9GUIGadgetD1Ev @396
    _ZN2sp3gui9GUIGadgetD2Ev @397
    _ZN2sp3gui9GUIWindow10checkFlagsEv @398
    _ZN2sp3gui9GUIWindow10updateMenuEv @399
    _ZN2sp3gui9GUIWindow11setMenuRootEPNS0_11GUIMenuItemE @400
    _ZN2sp3gui9GUIWindow12addWebGadgetERKNS_3dim7point2dIiEERKNS2_6size2dIiEEi @401
    _ZN2sp3gui9GUIWindow13CaptionColorAE @402 DATA
    _ZN2sp3gui9GUIWindow13CaptionColorBE @403 DATA
    _ZN2sp3gui9GUIWindow13addControllerEPNS0_13GUIControllerERKNS_3dim7point2dIiEERKNS4_6size2dIiEERKNS_2io6stringIcEEi @404
    _ZN2sp3gui9GUIWindow13addListGadgetERKNS_3dim7point2dIiEERKNS2_6size2dIiEEi @405
    _ZN2sp3gui9GUIWindow13addTextGadgetERKNS_3dim7point2dIiEERKNS2_6size2dIiEERKNS_2io6stringIcEEi @406
    _ZN2sp3gui9GUIWindow13addTreeGadgetERKNS_3dim7point2dIiEERKNS2_6size2dIiEEi @407
    _ZN2sp3gui9GUIWindow15addButtonGadgetERKNS_3dim7point2dIiEERKNS2_6size2dIiEERKNS_2io6stringIcEEi @408
    _ZN2sp3gui9GUIWindow15addStringGadgetERKNS_3dim7point2dIiEERKNS2_6size2dIiEERKNS_2io6stringIcEEi @409
    _ZN2sp3gui9GUIWindow15drawWindowFrameEv @410
    _ZN2sp3gui9GUIWindow16drawWindowButtonERiRKNS_5video5colorE @411
    _ZN2sp3gui9GUIWindow17addCheckboxGadgetERKNS_3dim7point2dIiEERKNS2_6size2dIiEERKNS_2io6stringIcEEi @412
    _ZN2sp3gui9GUIWindow17addTrackbarGadgetERKNS_3dim7point2dIiEERKNS2_6size2dIiEEiii @413
    _ZN2sp3gui9GUIWindow18addContainerGadgetERKNS_3dim7point2dIiEERKNS2_6size2dIiEEi @414
    _ZN2sp3gui9GUIWindow18addScrollbarGadgetERKNS_3dim7point2dIiEERKNS2_6size2dIiEEii @415
    _ZN2sp3gui9GUIWindow19clampWindowLocationEv @416
    _ZN2sp3gui9GUIWindow19drawWindowButtonMaxERi @417
    _ZN2sp3gui9GUIWindow19drawWindowButtonMinERi @418
    _ZN2sp3gui9GUIWindow20addProgressbarGadgetERKNS_3dim7point2dIiEERKNS2_6size2dIiEEii @419
    _ZN2sp3gui9GUIWindow20drawWindowBackgroundEv @420
    _ZN2sp3gui9GUIWindow21drawWindowButtonCloseERi @421
    _ZN2sp3gui9GUIWindow30drawWindowButtonFrameNormalizeERi @422
    _ZN2sp3gui9GUIWindow4drawEv @423
    _ZN2sp3gui9GUIWindow4initEv @424
    _ZN2sp3gui9GUIWindow5clearEv @425
    _ZN2sp3gui9GUIWindow5closeEv @426
    _ZN2sp3gui9GUIWindow6updateEv @427
    _ZN2sp3gui9GUIWindow7setSizeERKNS_3dim6size2dIiEE @428
    _ZN2sp3gui9GUIWindow8maximizeEv @429
    _ZN2sp3gui9GUIWindow8minimizeEv @430
    _ZN2sp3gui9GUIWindow9normalizeEv @431
    _ZN2sp3gui9GUIWindowC1Ev @432
    _ZN2sp3gui9GUIWindowC2Ev @433
    _ZN2sp3gui9GUIWindowD0Ev @434
    _ZN2sp3gui9GUIWindowD1Ev @435
    _ZN2sp3gui9GUIWindowD2Ev @436
    _ZN2sp4Node10setVisibleEb @437
    _ZN2sp4Node11addChildrenERKSt4listIPS0_SaIS2_EE @438
    _ZN2sp4Node11removeChildEPS0_ @439
    _ZN2sp4Node11removeChildEv @440
    _ZN2sp4Node14removeChildrenERKSt4listIPS0_SaIS2_EE @441
    _ZN2sp4Node14removeChildrenEv @442
    _ZN2sp4Node7setNameERKNS_2io6stringIcEE @443
    _ZN2sp4Node8addChildEPS0_ @444
    _ZN2sp4Node9setParentEPS0_ @445
    _ZN2sp4NodeC1Ev @446
    _ZN2sp4NodeC2Ev @447
    _ZN2sp4NodeD0Ev @448
    _ZN2sp4NodeD1Ev @449
    _ZN2sp4NodeD2Ev @450
    _ZN2sp4math10Randomizer10randVectorEv @451
    _ZN2sp4math10Randomizer10seedRandomEb @452
    _ZN2sp4math10Randomizer7randIntEi @453
    _ZN2sp4math10Randomizer7randIntEii @454
    _ZN2sp4math10Randomizer7randIntEv @455
    _ZN2sp4math10Randomizer9randColorEv @456
    _ZN2sp4math10Randomizer9randFloatEf @457
    _ZN2sp4math10Randomizer9randFloatEff @458
    _ZN2sp4math10Randomizer9randFloatEv @459
    _ZN2sp4math11ViewFrustum10setFrustumERKNS_3dim7matrix4IfEE @460
    _ZN2sp4math11ViewFrustumC1ERKNS_3dim7matrix4IfEE @461
    _ZN2sp4math11ViewFrustumC1Ev @462
    _ZN2sp4math11ViewFrustumC2ERKNS_3dim7matrix4IfEE @463
    _ZN2sp4math11ViewFrustumC2Ev @464
    _ZN2sp4math11ViewFrustumD1Ev @465
    _ZN2sp4math11ViewFrustumD2Ev @466
    _ZN2sp4math14TriangleCutter11cutTriangleERKNS_3dim10triangle3dIfNS2_8vector3dIfEEEERKNS2_7plane3dIfEERNS0_12STriangleCutE @467
    _ZN2sp4math14TriangleCutter11cutTriangleERKNS_3dim10triangle3dIfNS2_8vector3dIfEEEERKNS2_8aabbox3dIfEERSt4listIS6_SaIS6_EE @468
    _ZN2sp4math15getTangentSpaceENS_3dim8vector3dIfEES3_S3_NS1_7point2dIfEES5_S5_RS3_S6_S6_ @469
    _ZN2sp4math16CollisionLibrary14getClosestLineERKNS_3dim10triangle3dIfNS2_8vector3dIfEEEERKNS2_6line3dIfEE @470
    _ZN2sp4math16CollisionLibrary15getClosestPointERKNS_3dim10triangle3dIfNS2_8vector3dIfEEEERKS5_ @471
    _ZN2sp4math16CollisionLibrary15getClosestPointERKNS_3dim8aabbox3dIfEERKNS2_8vector3dIfEE @472
    _ZN2sp4math16CollisionLibrary15getClosestPointERKNS_3dim8aabbox3dIfEERKNS2_8vector3dIfEERS8_ @473
    _ZN2sp4math16CollisionLibrary19checkLineBoxOverlapERKNS_3dim6line3dIfEERKNS2_8aabbox3dIfEE @474
    _ZN2sp4math16CollisionLibrary20checkPlaneBoxOverlapERKNS_3dim7plane3dIfEERKNS2_8aabbox3dIfEE @475
    _ZN2sp4math16CollisionLibrary21getLineLineDistanceSqERKNS_3dim6line3dIfEES6_RNS2_8vector3dIfEES9_ @476
    _ZN2sp4math16CollisionLibrary22checkOBBoxOBBoxOverlapERKNS_3dim7obbox3dIfEES6_ @477
    _ZN2sp4math16CollisionLibrary23checkTriangleBoxOverlapERKNS_3dim10triangle3dIfNS2_8vector3dIfEEEERKNS2_8aabbox3dIfEE @478
    _ZN2sp4math16CollisionLibrary23getClosestPointStraightERKNS_3dim10triangle3dIfNS2_8vector3dIfEEEERKS5_RS5_ @479
    _ZN2sp4math16CollisionLibrary23getLineLineIntersectionERKNS_3dim6line3dIfEES6_RNS2_8vector3dIfEE @480
    _ZN2sp4math16CollisionLibrary24checkLineBoxIntersectionERKNS_3dim6line3dIfEERKNS2_8aabbox3dIfEERNS2_8vector3dIfEE @481
    _ZN2sp4math16CollisionLibrary27checkLineSphereIntersectionERKNS_3dim6line3dIfEERKNS2_8vector3dIfEEfRS8_ @482
    _ZN2sp4math16CollisionLibrary29checkLineTriangleIntersectionERKNS_3dim10triangle3dIfNS2_8vector3dIfEEEERKNS2_6line3dIfEERS5_ @483
    _ZN2sp4math16CollisionLibrary33checkTriangleTriangleIntersectionERKNS_3dim10triangle3dIfNS2_8vector3dIfEEEES8_RNS2_6line3dIfEE @484
    _ZN2sp4math16CollisionLibrary33get2DLineLineIntersectionStraightERKNS_3dim7point2dIfEES6_S6_S6_ @485
    _ZN2sp4math22getVertexInterpolationERKNS_3dim10triangle3dIfNS1_8vector3dIfEEEERKS4_RfSA_ @486
    _ZN2sp4tool12ScriptLoader10clearListsEv @487
    _ZN2sp4tool12ScriptLoader10readScriptEv @488
    _ZN2sp4tool12ScriptLoader11setConstantERKNS_2io6stringIcEES6_ @489
    _ZN2sp4tool12ScriptLoader12readNextLineEv @490
    _ZN2sp4tool12ScriptLoader13applySurfacesEPNS_5scene4MeshE @491
    _ZN2sp4tool12ScriptLoader14applyAnimationEPNS_5scene9SceneNodeE @492
    _ZN2sp4tool12ScriptLoader14cropLineInsideEii @493
    _ZN2sp4tool12ScriptLoader14loadScriptFileERKNS_2io6stringIcEE @494
    _ZN2sp4tool12ScriptLoader15cropLineOutsideEii @495
    _ZN2sp4tool12ScriptLoader16examineBlockAnimEv @496
    _ZN2sp4tool12ScriptLoader16examineBlockMeshEv @497
    _ZN2sp4tool12ScriptLoader16examineBlockNodeEPNS_5scene9SceneNodeE @498
    _ZN2sp4tool12ScriptLoader16examineBlockNodeEv @499
    _ZN2sp4tool12ScriptLoader16readCommandBlockEv @500
    _ZN2sp4tool12ScriptLoader16readCommandMacroEv @501
    _ZN2sp4tool12ScriptLoader17examineBlockFrameEv @502
    _ZN2sp4tool12ScriptLoader17examineBlockLightEv @503
    _ZN2sp4tool12ScriptLoader17examineBlockSoundEv @504
    _ZN2sp4tool12ScriptLoader17readCommandAccessEv @505
    _ZN2sp4tool12ScriptLoader17readCommandDirectEv @506
    _ZN2sp4tool12ScriptLoader17readNextParameterERNS1_10SParameterEi @507
    _ZN2sp4tool12ScriptLoader18examineBlockCameraEv @508
    _ZN2sp4tool12ScriptLoader18examineBlockShaderEv @509
    _ZN2sp4tool12ScriptLoader18examineBlockVertexEv @510
    _ZN2sp4tool12ScriptLoader18readCommandForLoopEv @511
    _ZN2sp4tool12ScriptLoader19examineBlockSurfaceEv @512
    _ZN2sp4tool12ScriptLoader19examineBlockTerrainEv @513
    _ZN2sp4tool12ScriptLoader19examineBlockTextureEv @514
    _ZN2sp4tool12ScriptLoader20examineBlockTriangleEv @515
    _ZN2sp4tool12ScriptLoader21examineBlockBillboardEv @516
    _ZN2sp4tool12ScriptLoader22readNextParameterValueERNS1_10SParameterERNS_2io6stringIcEE @517
    _ZN2sp4tool12ScriptLoader24examineBlockMaterialNodeEPNS_5scene12MaterialNodeE @518
    _ZN2sp4tool12ScriptLoader7isParamERKNS_2io6stringIcEE @519
    _ZN2sp4tool12ScriptLoader8readLineEv @520
    _ZN2sp4tool12ScriptLoaderC1Ev @521
    _ZN2sp4tool12ScriptLoaderC2Ev @522
    _ZN2sp4tool12ScriptLoaderD0Ev @523
    _ZN2sp4tool12ScriptLoaderD1Ev @524
    _ZN2sp4tool12ScriptLoaderD2Ev @525
    _ZN2sp4tool13ModelCombiner10Precision_E @526 DATA
    _ZN2sp4tool13ModelCombiner12getPrecisionEv @527
    _ZN2sp4tool13ModelCombiner12setPrecisionEf @528
    _ZN2sp4tool13ModelCombiner13CutFrontSide_E @529 DATA
    _ZN2sp4tool13ModelCombiner13combineModelsEPNS_5scene4MeshES4_NS0_18EModelCombinationsE @530
    _ZN2sp4tool13ModelCombiner8cutModelEPNS1_6SModelES3_b @531
    _ZN2sp4tool13ModelCombinerC1Ev @532
    _ZN2sp4tool13ModelCombinerC2Ev @533
    _ZN2sp4tool13ModelCombinerD1Ev @534
    _ZN2sp4tool13ModelCombinerD2Ev @535
    _ZN2sp4tool14SLightmapLightC1EPKNS_5scene5LightE @536
    _ZN2sp4tool14SLightmapLightC1Ev @537
    _ZN2sp4tool14SLightmapLightC2EPKNS_5scene5LightE @538
    _ZN2sp4tool14SLightmapLightC2Ev @539
    _ZN2sp4tool14SLightmapLightD1Ev @540
    _ZN2sp4tool14SLightmapLightD2Ev @541
    _ZN2sp4tool16ParticleAnimator11addParticleEPNS_5scene9BillboardENS0_18EParticleAttributeEmfRKNS_3dim8vector3dIfEESA_SA_SA_ @542
    _ZN2sp4tool16ParticleAnimator11addParticleERKNS0_9SParticleE @543
    _ZN2sp4tool16ParticleAnimator14removeParticleERPNS0_9SParticleEb @544
    _ZN2sp4tool16ParticleAnimator14removeParticleERPNS_5scene9BillboardEb @545
    _ZN2sp4tool16ParticleAnimator14updateParticleERSt14_List_iteratorIPNS0_9SParticleEE @546
    _ZN2sp4tool16ParticleAnimator16setParticleAlphaEPNS0_9SParticleE @547
    _ZN2sp4tool16ParticleAnimator16setParticleAlphaEPNS0_9SParticleEf @548
    _ZN2sp4tool16ParticleAnimator20setEnduranceCallbackEPFbPNS0_9SParticleEE @549
    _ZN2sp4tool16ParticleAnimator22setDestructionCallbackEPFbPNS0_9SParticleEE @550
    _ZN2sp4tool16ParticleAnimator6updateEv @551
    _ZN2sp4tool16ParticleAnimator9setParentEPNS_5scene9SceneNodeEb @552
    _ZN2sp4tool16ParticleAnimatorC1Ev @553
    _ZN2sp4tool16ParticleAnimatorC2Ev @554
    _ZN2sp4tool16ParticleAnimatorD0Ev @555
    _ZN2sp4tool16ParticleAnimatorD1Ev @556
    _ZN2sp4tool16ParticleAnimatorD2Ev @557
    _ZN2sp4tool16SGetShadowObjectC1EPNS_5scene4MeshERKSt6vectorIS5_IfSaIfEESaIS7_EEb @558
    _ZN2sp4tool16SGetShadowObjectC1EPNS_5scene4MeshEb @559
    _ZN2sp4tool16SGetShadowObjectC2EPNS_5scene4MeshERKSt6vectorIS5_IfSaIfEESaIS7_EEb @560
    _ZN2sp4tool16SGetShadowObjectC2EPNS_5scene4MeshEb @561
    _ZN2sp4tool16SGetShadowObjectD1Ev @562
    _ZN2sp4tool16SGetShadowObjectD2Ev @563
    _ZN2sp4tool17LightmapGenerator11setCallbackEPFbfE @564
    _ZN2sp4tool17LightmapGenerator12ProgressMax_E @565 DATA
    _ZN2sp4tool17LightmapGenerator13AmbientColor_E @566 DATA
    _ZN2sp4tool17LightmapGenerator13LightmapSize_E @567 DATA
    _ZN2sp4tool17LightmapGenerator14buildFinalMeshEPNS1_6SModelE @568
    _ZN2sp4tool17LightmapGenerator14processRunningEb @569
    _ZN2sp4tool17LightmapGenerator15DefaultDensity_E @570 DATA
    _ZN2sp4tool17LightmapGenerator17createNewLightmapEv @571
    _ZN2sp4tool17LightmapGenerator17generateLightmapsERKSt4listINS0_17SCastShadowObjectESaIS3_EERKS2_INS0_16SGetShadowObjectESaIS8_EERKS2_INS0_14SLightmapLightESaISD_EERKNS_5video5colorEjfj @572
    _ZN2sp4tool17LightmapGenerator17rasterizeTriangleEPKNS1_6SLightERKNS1_9STriangleE @573
    _ZN2sp4tool17LightmapGenerator19generateLightTexelsEPNS1_6SLightE @574
    _ZN2sp4tool17LightmapGenerator19putFaceIntoLightmapEPNS1_5SFaceE @575
    _ZN2sp4tool17LightmapGenerator20clearLightmapObjectsEv @576
    _ZN2sp4tool17LightmapGenerator20createFacesLightmapsEPNS1_6SModelE @577
    _ZN2sp4tool17LightmapGenerator20processTexelLightingEPNS1_14SLightmapTexelEPKNS1_6SLightERKNS1_18SRasterPolygonSideE @578
    _ZN2sp4tool17LightmapGenerator4initEv @579
    _ZN2sp4tool17LightmapGenerator5clearEv @580
    _ZN2sp4tool17LightmapGenerator9Callback_E @581 DATA
    _ZN2sp4tool17LightmapGenerator9Progress_E @582 DATA
    _ZN2sp4tool17LightmapGeneratorC1Ev @583
    _ZN2sp4tool17LightmapGeneratorC2Ev @584
    _ZN2sp4tool17LightmapGeneratorD1Ev @585
    _ZN2sp4tool17LightmapGeneratorD2Ev @586
    _ZN2sp4tool17SCastShadowObjectC1EPNS_5scene4MeshE @587
    _ZN2sp4tool17SCastShadowObjectC2EPNS_5scene4MeshE @588
    _ZN2sp4tool17SCastShadowObjectD1Ev @589
    _ZN2sp4tool17SCastShadowObjectD2Ev @590
    _ZN2sp4tool18TextureManipulator10drawMosaicEPNS_5video7TextureEiNS_3dim6rect2dIiEE @591
    _ZN2sp4tool18TextureManipulator14checkDimensionEPKNS_5video7TextureERNS_3dim6rect2dIiEE @592
    _ZN2sp4tool18TextureManipulator8drawBlurEPNS_5video7TextureEiNS_3dim6rect2dIiEE @593
    _ZN2sp4tool18TextureManipulatorC1Ev @594
    _ZN2sp4tool18TextureManipulatorC2Ev @595
    _ZN2sp4tool18TextureManipulatorD1Ev @596
    _ZN2sp4tool18TextureManipulatorD2Ev @597
    _ZN2sp4tool7Toolset14moveCameraFreeEPNS_5scene6CameraEfffb @598
    _ZN2sp4tool8PathEdge18updateNodePositionEPNS0_8PathNodeE @599
    _ZN2sp4tool8PathEdgeC1EPNS0_8PathNodeES3_b @600
    _ZN2sp4tool8PathEdgeC1Ev @601
    _ZN2sp4tool8PathEdgeC2EPNS0_8PathNodeES3_b @602
    _ZN2sp4tool8PathEdgeC2Ev @603
    _ZN2sp4tool8PathEdgeD0Ev @604
    _ZN2sp4tool8PathEdgeD1Ev @605
    _ZN2sp4tool8PathEdgeD2Ev @606
    _ZN2sp4tool8PathNode10removeEdgeEPNS0_8PathEdgeE @607
    _ZN2sp4tool8PathNode11setPositionERKNS_3dim8vector3dIfEE @608
    _ZN2sp4tool8PathNode15updateNeighborsEv @609
    _ZN2sp4tool8PathNode6StcNr_E @610 DATA
    _ZN2sp4tool8PathNode7addEdgeEPNS0_8PathEdgeE @611
    _ZN2sp4tool8PathNodeC1ERKNS_3dim8vector3dIfEEPv @612
    _ZN2sp4tool8PathNodeC1Ev @613
    _ZN2sp4tool8PathNodeC2ERKNS_3dim8vector3dIfEEPv @614
    _ZN2sp4tool8PathNodeC2Ev @615
    _ZN2sp4tool8PathNodeD0Ev @616
    _ZN2sp4tool8PathNodeD1Ev @617
    _ZN2sp4tool8PathNodeD2Ev @618
    _ZN2sp4tool9PathGraph10createGridERKNS_3dim8vector3dIfEES6_RKNS3_IiEERKSt6vectorIbSaIbEEb @619
    _ZN2sp4tool9PathGraph10removeEdgeEPNS0_8PathEdgeE @620
    _ZN2sp4tool9PathGraph10removeNodeEPNS0_8PathNodeE @621
    _ZN2sp4tool9PathGraph11getNextNodeEv @622
    _ZN2sp4tool9PathGraph13clearEdgeListEv @623
    _ZN2sp4tool9PathGraph13clearNodeListEv @624
    _ZN2sp4tool9PathGraph13constructPathERSt4listIPNS0_8PathNodeESaIS4_EES4_ @625
    _ZN2sp4tool9PathGraph14addNodeToQueueEPNS0_8PathNodeES3_f @626
    _ZN2sp4tool9PathGraph7addEdgeEPNS0_8PathNodeES3_b @627
    _ZN2sp4tool9PathGraph7addNodeERKNS_3dim8vector3dIfEEPv @628
    _ZN2sp4tool9PathGraph8findPathEPNS0_8PathNodeES3_ @629
    _ZN2sp4tool9PathGraph8findPathERKNS_3dim8vector3dIfEES6_ @630
    _ZN2sp4tool9PathGraph8nextStepEv @631
    _ZN2sp4tool9PathGraphC1Ev @632
    _ZN2sp4tool9PathGraphC2Ev @633
    _ZN2sp4tool9PathGraphD0Ev @634
    _ZN2sp4tool9PathGraphD1Ev @635
    _ZN2sp4tool9PathGraphD2Ev @636
    _ZN2sp4tool9XMLParser12readNextLineEv @637
    _ZN2sp4tool9XMLParser13popBlockStackEv @638
    _ZN2sp4tool9XMLParser14pushBlockStackEv @639
    _ZN2sp4tool9XMLParser14readAttributesEii @640
    _ZN2sp4tool9XMLParser19addAttributeToBlockERKNS_2io6stringIcEE @641
    _ZN2sp4tool9XMLParser7readXMLEv @642
    _ZN2sp4tool9XMLParser8loadFileERKNS_2io6stringIcEE @643
    _ZN2sp4tool9XMLParser8readTextEii @644
    _ZN2sp4tool9XMLParserC1Ev @645
    _ZN2sp4tool9XMLParserC2Ev @646
    _ZN2sp4tool9XMLParserD0Ev @647
    _ZN2sp4tool9XMLParserD1Ev @648
    _ZN2sp4tool9XMLParserD2Ev @649
    _ZN2sp5audio10DummySound10setBalanceEf @650
    _ZN2sp5audio10DummySound5closeEv @651
    _ZN2sp5audio10DummySound6reloadERKNS_2io6stringIcEEh @652
    _ZN2sp5audio10DummySound7setSeekEf @653
    _ZN2sp5audio10DummySound8setSpeedEf @654
    _ZN2sp5audio10DummySound9setVolumeEf @655
    _ZN2sp5audio10DummySoundC1ENS0_11ESoundModesE @656
    _ZN2sp5audio10DummySoundC2ENS0_11ESoundModesE @657
    _ZN2sp5audio10DummySoundD0Ev @658
    _ZN2sp5audio10DummySoundD1Ev @659
    _ZN2sp5audio10DummySoundD2Ev @660
    _ZN2sp5audio10WinMMSound10addIDCountEv @661
    _ZN2sp5audio10WinMMSound10saveRecordERKNS_2io6stringIcEE @662
    _ZN2sp5audio10WinMMSound10setBalanceEf @663
    _ZN2sp5audio10WinMMSound12endRecordingEv @664
    _ZN2sp5audio10WinMMSound14beginRecordingEv @665
    _ZN2sp5audio10WinMMSound17SOUND_SEEK_HEIGHTE @666 DATA
    _ZN2sp5audio10WinMMSound18SOUND_SPEED_HEIGHTE @667 DATA
    _ZN2sp5audio10WinMMSound19SOUND_VOLUME_HEIGHTE @668 DATA
    _ZN2sp5audio10WinMMSound4initEv @669
    _ZN2sp5audio10WinMMSound4playEb @670
    _ZN2sp5audio10WinMMSound4stopEv @671
    _ZN2sp5audio10WinMMSound5closeEv @672
    _ZN2sp5audio10WinMMSound5pauseEb @673
    _ZN2sp5audio10WinMMSound6reloadERKNS_2io6stringIcEEh @674
    _ZN2sp5audio10WinMMSound7setSeekEf @675
    _ZN2sp5audio10WinMMSound8setSpeedEf @676
    _ZN2sp5audio10WinMMSound9setVolumeEf @677
    _ZN2sp5audio10WinMMSoundC1ENS0_11ESoundModesE @678
    _ZN2sp5audio10WinMMSoundC2ENS0_11ESoundModesE @679
    _ZN2sp5audio10WinMMSoundD0Ev @680
    _ZN2sp5audio10WinMMSoundD1Ev @681
    _ZN2sp5audio10WinMMSoundD2Ev @682
    _ZN2sp5audio11SoundDevice10playMelodyENS0_10ENoteNamesEhjj @683
    _ZN2sp5audio11SoundDevice10playMelodyENS_2io6stringIcEE @684
    _ZN2sp5audio11SoundDevice11deleteSoundERPNS0_5SoundE @685
    _ZN2sp5audio11SoundDevice12MelodySpeed_E @686 DATA
    _ZN2sp5audio11SoundDevice12updateSoundsEv @687
    _ZN2sp5audio11SoundDevice14setMelodySpeedEf @688
    _ZN2sp5audio11SoundDevice16setListenerRangeEffff @689
    _ZN2sp5audio11SoundDevice19setListenerPositionERKNS_3dim8vector3dIfEE @690
    _ZN2sp5audio11SoundDevice19setListenerVelocityERKNS_3dim8vector3dIfEE @691
    _ZN2sp5audio11SoundDevice20updateSoundVolumeticEPNS0_5SoundE @692
    _ZN2sp5audio11SoundDevice22setListenerOrientationERKNS_3dim7matrix4IfEE @693
    _ZN2sp5audio11SoundDevice9loadSoundERKNS_2io6stringIcEENS0_11ESoundModesEh @694
    _ZN2sp5audio11SoundDeviceC1ENS0_13ESoundDevicesE @695
    _ZN2sp5audio11SoundDeviceC2ENS0_13ESoundDevicesE @696
    _ZN2sp5audio11SoundDeviceD0Ev @697
    _ZN2sp5audio11SoundDeviceD1Ev @698
    _ZN2sp5audio11SoundDeviceD2Ev @699
    _ZN2sp5audio16DummySoundDevice11createSoundENS0_11ESoundModesE @700
    _ZN2sp5audio16DummySoundDeviceC1Ev @701
    _ZN2sp5audio16DummySoundDeviceC2Ev @702
    _ZN2sp5audio16DummySoundDeviceD0Ev @703
    _ZN2sp5audio16DummySoundDeviceD1Ev @704
    _ZN2sp5audio16DummySoundDeviceD2Ev @705
    _ZN2sp5audio16WinMMSoundDevice11createSoundENS0_11ESoundModesE @706
    _ZN2sp5audio16WinMMSoundDevice14sendMessageMCIERKNS_2io6stringIcEE @707
    _ZN2sp5audio16WinMMSoundDevice14sendMessageMCIERKNS_2io6stringIcEEPcj @708
    _ZN2sp5audio16WinMMSoundDeviceC1Ev @709
    _ZN2sp5audio16WinMMSoundDeviceC2Ev @710
    _ZN2sp5audio16WinMMSoundDeviceD0Ev @711
    _ZN2sp5audio16WinMMSoundDeviceD1Ev @712
    _ZN2sp5audio16WinMMSoundDeviceD2Ev @713
    _ZN2sp5audio5Sound10saveRecordERKNS_2io6stringIcEE @714
    _ZN2sp5audio5Sound11setPositionERKNS_3dim8vector3dIfEE @715
    _ZN2sp5audio5Sound12endRecordingEv @716
    _ZN2sp5audio5Sound13setVolumetricEb @717
    _ZN2sp5audio5Sound14beginRecordingEv @718
    _ZN2sp5audio5Sound19setVolumetricRadiusEf @719
    _ZN2sp5audio5Sound4playEb @720
    _ZN2sp5audio5Sound4stopEv @721
    _ZN2sp5audio5Sound5pauseEb @722
    _ZN2sp5audio5SoundC1ENS0_11ESoundModesE @723
    _ZN2sp5audio5SoundC2ENS0_11ESoundModesE @724
    _ZN2sp5audio5SoundD0Ev @725
    _ZN2sp5audio5SoundD1Ev @726
    _ZN2sp5audio5SoundD2Ev @727
    _ZN2sp5scene10KDTreeNode11addChildrenENS0_12EKDTreeAxlesEf @728
    _ZN2sp5scene10KDTreeNode11addChildrenEv @729
    _ZN2sp5scene10KDTreeNode14removeChildrenEv @730
    _ZN2sp5scene10KDTreeNode8setupBoxEv @731
    _ZN2sp5scene10KDTreeNodeC1EPNS0_8TreeNodeE @732
    _ZN2sp5scene10KDTreeNodeC2EPNS0_8TreeNodeE @733
    _ZN2sp5scene10KDTreeNodeD0Ev @734
    _ZN2sp5scene10KDTreeNodeD1Ev @735
    _ZN2sp5scene10KDTreeNodeD2Ev @736
    _ZN2sp5scene10MeshLoaderC2Ev @737
    _ZN2sp5scene10MeshLoaderD0Ev @738
    _ZN2sp5scene10MeshLoaderD1Ev @739
    _ZN2sp5scene10MeshLoaderD2Ev @740
    _ZN2sp5scene10OcTreeNode10createTreeEPNS0_4MeshEa @741
    _ZN2sp5scene10OcTreeNode10createTreeERKSt4listIPNS0_9SceneNodeESaIS4_EEa @742
    _ZN2sp5scene10OcTreeNode11addChildrenEv @743
    _ZN2sp5scene10OcTreeNode13placeTriangleEPPS1_RKNS_3dim10triangle3dIfPNS4_8vector3dIfEEEEjjNS6_IiEEi @744
    _ZN2sp5scene10OcTreeNode14clampTreeForksERa @745
    _ZN2sp5scene10OcTreeNode14createChildrenEPPS1_RaRKNS_3dim8vector3dIfEES9_i @746
    _ZN2sp5scene10OcTreeNode14removeChildrenEv @747
    _ZN2sp5scene10OcTreeNode9placeNodeEPPS1_PNS0_9SceneNodeENS_3dim8vector3dIiEEi @748
    _ZN2sp5scene10OcTreeNodeC1EPNS0_8TreeNodeE @749
    _ZN2sp5scene10OcTreeNodeC2EPNS0_8TreeNodeE @750
    _ZN2sp5scene10OcTreeNodeD0Ev @751
    _ZN2sp5scene10OcTreeNodeD1Ev @752
    _ZN2sp5scene10OcTreeNodeD2Ev @753
    _ZN2sp5scene10RenderNode20updateTransformationEv @754
    _ZN2sp5scene10RenderNode7compareEPS1_ @755
    _ZN2sp5scene10RenderNodeC1ENS0_10ENodeTypesE @756
    _ZN2sp5scene10RenderNodeC2ENS0_10ENodeTypesE @757
    _ZN2sp5scene10RenderNodeD0Ev @758
    _ZN2sp5scene10RenderNodeD1Ev @759
    _ZN2sp5scene10RenderNodeD2Ev @760
    _ZN2sp5scene10SceneGraph10clearSceneEbbbbbb @761
    _ZN2sp5scene10SceneGraph10createMeshENS0_12EBasicMeshesERKNS0_14SMeshConstructE @762
    _ZN2sp5scene10SceneGraph10createMeshEv @763
    _ZN2sp5scene10SceneGraph10createNodeEv @764
    _ZN2sp5scene10SceneGraph10deleteNodeEPNS0_9SceneNodeE @765
    _ZN2sp5scene10SceneGraph11addRootNodeEPNS0_9SceneNodeE @766
    _ZN2sp5scene10SceneGraph11createLightENS0_12ELightModelsE @767
    _ZN2sp5scene10SceneGraph11renderSceneEPNS0_6CameraE @768
    _ZN2sp5scene10SceneGraph11renderSceneEv @769
    _ZN2sp5scene10SceneGraph11setLightingEb @770
    _ZN2sp5scene10SceneGraph12addSceneNodeEPNS0_10RenderNodeE @771
    _ZN2sp5scene10SceneGraph12addSceneNodeEPNS0_5LightE @772
    _ZN2sp5scene10SceneGraph12addSceneNodeEPNS0_6CameraE @773
    _ZN2sp5scene10SceneGraph12addSceneNodeEPNS0_9SceneNodeE @774
    _ZN2sp5scene10SceneGraph12createCameraEv @775
    _ZN2sp5scene10SceneGraph12createSkyBoxEPPNS_5video7TextureEf @776
    _ZN2sp5scene10SceneGraph12setWireframeENS_5video15EWireframeTypesE @777
    _ZN2sp5scene10SceneGraph12setWireframeENS_5video15EWireframeTypesES3_ @778
    _ZN2sp5scene10SceneGraph13createFurMeshEPNS0_4MeshEPNS_5video7TextureEifi @779
    _ZN2sp5scene10SceneGraph13createTerrainERKNS_5video17SHeightMapTextureERKNS_3dim6size2dIiEEi @780
    _ZN2sp5scene10SceneGraph13removeTextureEPKNS_5video7TextureE @781
    _ZN2sp5scene10SceneGraph13setRenderFaceENS_5video10EFaceTypesE @782
    _ZN2sp5scene10SceneGraph13sortLightListERSt4listIPNS0_5LightESaIS4_EE @783
    _ZN2sp5scene10SceneGraph14createMeshListESt4listIPNS0_4MeshESaIS4_EEb @784
    _ZN2sp5scene10SceneGraph14removeRootNodeEPNS0_9SceneNodeE @785
    _ZN2sp5scene10SceneGraph14sortRenderListERSt4listIPNS0_10RenderNodeESaIS4_EERKNS_3dim7matrix4IfEE @786
    _ZN2sp5scene10SceneGraph15createBillboardEPNS_5video7TextureE @787
    _ZN2sp5scene10SceneGraph15removeSceneNodeEPNS0_10RenderNodeE @788
    _ZN2sp5scene10SceneGraph15removeSceneNodeEPNS0_5LightE @789
    _ZN2sp5scene10SceneGraph15removeSceneNodeEPNS0_6CameraE @790
    _ZN2sp5scene10SceneGraph15removeSceneNodeEPNS0_9SceneNodeE @791
    _ZN2sp5scene10SceneGraph16createSuperShapeEPKfi @792
    _ZN2sp5scene10SceneGraph16updateAnimationsEv @793
    _ZN2sp5scene10SceneGraph17createHeightFieldEPKNS_5video7TextureEi @794
    _ZN2sp5scene10SceneGraph17createMeshSurfaceEPNS0_4MeshEj @795
    _ZN2sp5scene10SceneGraph17getStencilManagerEv @796
    _ZN2sp5scene10SceneGraph19DefaultIndexFormat_E @797 DATA
    _ZN2sp5scene10SceneGraph20DefaultVertexFormat_E @798 DATA
    _ZN2sp5scene10SceneGraph20TextureLoadingState_E @799 DATA
    _ZN2sp5scene10SceneGraph21getDefaultIndexFormatEv @800
    _ZN2sp5scene10SceneGraph21setDefaultIndexFormatENS_5video18ERendererDataTypesE @801
    _ZN2sp5scene10SceneGraph22getDefaultVertexFormatEv @802
    _ZN2sp5scene10SceneGraph22getTextureLoadingStateEv @803
    _ZN2sp5scene10SceneGraph22renderSceneStereoImageEPNS0_6CameraEff @804
    _ZN2sp5scene10SceneGraph22setDefaultVertexFormatEPNS_5video12VertexFormatE @805
    _ZN2sp5scene10SceneGraph22setTextureLoadingStateEb @806
    _ZN2sp5scene10SceneGraph8copyNodeEPKNS0_4MeshE @807
    _ZN2sp5scene10SceneGraph8copyNodeEPKNS0_5LightE @808
    _ZN2sp5scene10SceneGraph8copyNodeEPKNS0_6CameraE @809
    _ZN2sp5scene10SceneGraph8copyNodeEPKNS0_7TerrainE @810
    _ZN2sp5scene10SceneGraph8copyNodeEPKNS0_9BillboardE @811
    _ZN2sp5scene10SceneGraph8copyNodeEPKNS0_9SceneNodeE @812
    _ZN2sp5scene10SceneGraph8loadMeshENS_2io6stringIcEES4_NS0_16EMeshFileFormatsE @813
    _ZN2sp5scene10SceneGraph8saveMeshEPNS0_4MeshENS_2io6stringIcEENS0_16EMeshFileFormatsE @814
    _ZN2sp5scene10SceneGraph9loadSceneENS_2io6stringIcEES4_NS0_17ESceneFileFormatsEi @815
    _ZN2sp5scene10SceneGraphC1ENS0_12ESceneGraphsE @816
    _ZN2sp5scene10SceneGraphC2ENS0_12ESceneGraphsE @817
    _ZN2sp5scene10SceneGraphD0Ev @818
    _ZN2sp5scene10SceneGraphD1Ev @819
    _ZN2sp5scene10SceneGraphD2Ev @820
    _ZN2sp5scene11BSPTreeNode11addChildrenEv @821
    _ZN2sp5scene11BSPTreeNode14removeChildrenEv @822
    _ZN2sp5scene11BSPTreeNodeC1EPNS0_8TreeNodeE @823
    _ZN2sp5scene11BSPTreeNodeC2EPNS0_8TreeNodeE @824
    _ZN2sp5scene11BSPTreeNodeD0Ev @825
    _ZN2sp5scene11BSPTreeNodeD1Ev @826
    _ZN2sp5scene11BSPTreeNodeD2Ev @827
    _ZN2sp5scene11MeshLoaderX10readHeaderEv @828
    _ZN2sp5scene11MeshLoaderX11cropLineTxtEj @829
    _ZN2sp5scene11MeshLoaderX11cropLineTxtEjj @830
    _ZN2sp5scene11MeshLoaderX11readLineTxtEv @831
    _ZN2sp5scene11MeshLoaderX15examineTemplateEPNS1_10STemplateXE @832
    _ZN2sp5scene11MeshLoaderX15readLinePartTxtEv @833
    _ZN2sp5scene11MeshLoaderX16readNextTemplateERPNS1_10STemplateXE @834
    _ZN2sp5scene11MeshLoaderX17readNextMemberTxtEPNS1_16STemplateMemberXEPNS1_26SRegisteredTemplateMemberXEb @835
    _ZN2sp5scene11MeshLoaderX19readNextTemplateBinEPNS1_10STemplateXE @836
    _ZN2sp5scene11MeshLoaderX19readNextTemplateTxtERPNS1_10STemplateXE @837
    _ZN2sp5scene11MeshLoaderX19registerNewTemplateENS1_14ETemplateTypesERKNS_2io6stringIcEE @838
    _ZN2sp5scene11MeshLoaderX21examineTemplateMemberEPNS1_16STemplateMemberXE @839
    _ZN2sp5scene11MeshLoaderX22readTemplateMembersTxtEPNS1_10STemplateXEPNS1_20SRegisteredTemplateXE @840
    _ZN2sp5scene11MeshLoaderX23checkLineForTemplateTxtEv @841
    _ZN2sp5scene11MeshLoaderX24registerDefaultTemplatesEv @842
    _ZN2sp5scene11MeshLoaderX30checkForTemplateDeclarationTxtEv @843
    _ZN2sp5scene11MeshLoaderX32checkLineForTemplateReferenceTxtEv @844
    _ZN2sp5scene11MeshLoaderX4initEv @845
    _ZN2sp5scene11MeshLoaderX5clearEv @846
    _ZN2sp5scene11MeshLoaderX8loadMeshERKNS_2io6stringIcEES6_ @847
    _ZN2sp5scene11MeshLoaderX8readMeshEv @848
    _ZN2sp5scene11MeshLoaderX9buildMeshEv @849
    _ZN2sp5scene11MeshLoaderXC1Ev @850
    _ZN2sp5scene11MeshLoaderXC2Ev @851
    _ZN2sp5scene11MeshLoaderXD0Ev @852
    _ZN2sp5scene11MeshLoaderXD1Ev @853
    _ZN2sp5scene11MeshLoaderXD2Ev @854
    _ZN2sp5scene11SceneLoaderC2Ev @855
    _ZN2sp5scene11SceneLoaderD0Ev @856
    _ZN2sp5scene11SceneLoaderD1Ev @857
    _ZN2sp5scene11SceneLoaderD2Ev @858
    _ZN2sp5scene11TreeBuilder11buildKdTreeEPNS0_4MeshEh @859
    _ZN2sp5scene11TreeBuilder11buildOcTreeEPNS0_4MeshEh @860
    _ZN2sp5scene11TreeBuilder12buildBSPTreeEPNS0_4MeshEh @861
    _ZN2sp5scene11TreeBuilder13buildQuadTreeEPNS0_4MeshEh @862
    _ZN2sp5scene11TreeBuilder14fillKdTreeNodeEPNS0_10KDTreeNodeEPNS0_4MeshERKSt4listIPNS0_18SCollisionTriangleESaIS8_EE @863
    _ZN2sp5scene11TreeBuilder15buildKdTreeNodeEPNS0_10KDTreeNodeEPNS0_4MeshERKSt4listIPNS0_18SCollisionTriangleESaIS8_EENS0_12EKDTreeAxlesEfh @864
    _ZN2sp5scene11TreeBuilder24createKdTreeNodeChildrenEPNS0_10KDTreeNodeEPNS0_4MeshERKSt4listIPNS0_18SCollisionTriangleESaIS8_EENS0_12EKDTreeAxlesEfh @865
    _ZN2sp5scene11TreeBuilderC1Ev @866
    _ZN2sp5scene11TreeBuilderC2Ev @867
    _ZN2sp5scene11TreeBuilderD1Ev @868
    _ZN2sp5scene11TreeBuilderD2Ev @869
    _ZN2sp5scene12CollisionBox14checkCollisionEPNS0_15CollisionSphereERNS0_21SCollisionNodeContactE @870
    _ZN2sp5scene12CollisionBox17checkIntersectionERKNS_3dim6line3dIfEERNS0_21SCollisionNodeContactE @871
    _ZN2sp5scene12CollisionBoxC1EPNS0_9SceneNodeERKNS_3dim8aabbox3dIfEE @872
    _ZN2sp5scene12CollisionBoxC2EPNS0_9SceneNodeERKNS_3dim8aabbox3dIfEE @873
    _ZN2sp5scene12CollisionBoxD0Ev @874
    _ZN2sp5scene12CollisionBoxD1Ev @875
    _ZN2sp5scene12CollisionBoxD2Ev @876
    _ZN2sp5scene12MaterialNode11setMaterialEPKNS_5video14MaterialStatesE @877
    _ZN2sp5scene12MaterialNode7compareEPS1_ @878
    _ZN2sp5scene12MaterialNodeC1ENS0_10ENodeTypesE @879
    _ZN2sp5scene12MaterialNodeC2ENS0_10ENodeTypesE @880
    _ZN2sp5scene12MaterialNodeD0Ev @881
    _ZN2sp5scene12MaterialNodeD1Ev @882
    _ZN2sp5scene12MaterialNodeD2Ev @883
    _ZN2sp5scene12MeshSaverB3D10beginChunkENS_2io6stringIcEE @884
    _ZN2sp5scene12MeshSaverB3D13saveModelDataEv @885
    _ZN2sp5scene12MeshSaverB3D8endChunkEv @886
    _ZN2sp5scene12MeshSaverB3D8saveMeshEPNS0_4MeshERKNS_2io6stringIcEE @887
    _ZN2sp5scene12MeshSaverB3D9writeMeshEv @888
    _ZN2sp5scene12MeshSaverB3DC1Ev @889
    _ZN2sp5scene12MeshSaverB3DC2Ev @890
    _ZN2sp5scene12MeshSaverB3DD0Ev @891
    _ZN2sp5scene12MeshSaverB3DD1Ev @892
    _ZN2sp5scene12MeshSaverB3DD2Ev @893
    _ZN2sp5scene12MeshSaverOBJ13saveModelDataEv @894
    _ZN2sp5scene12MeshSaverOBJ14writeValueListIfEEvPKcPKT_i @895
    _ZN2sp5scene12MeshSaverOBJ8saveMeshEPNS0_4MeshERKNS_2io6stringIcEE @896
    _ZN2sp5scene12MeshSaverOBJC1Ev @897
    _ZN2sp5scene12MeshSaverOBJC2Ev @898
    _ZN2sp5scene12MeshSaverOBJD0Ev @899
    _ZN2sp5scene12MeshSaverOBJD1Ev @900
    _ZN2sp5scene12MeshSaverOBJD2Ev @901
    _ZN2sp5scene12MeshSaverSPM11writeHeaderEv @902
    _ZN2sp5scene12MeshSaverSPM16getTextureInternEv @903
    _ZN2sp5scene12MeshSaverSPM16isTextureIntern_E @904 DATA
    _ZN2sp5scene12MeshSaverSPM16setTextureInternEb @905
    _ZN2sp5scene12MeshSaverSPM16writeChunkObjectEv @906
    _ZN2sp5scene12MeshSaverSPM16writeChunkVertexEj @907
    _ZN2sp5scene12MeshSaverSPM17writeChunkSubMeshEPNS0_4MeshE @908
    _ZN2sp5scene12MeshSaverSPM17writeChunkSurfaceEj @909
    _ZN2sp5scene12MeshSaverSPM17writeChunkTextureEh @910
    _ZN2sp5scene12MeshSaverSPM18writeChunkTriangleEj @911
    _ZN2sp5scene12MeshSaverSPM23writeChunkAnimationBoneEPKNS0_13AnimationBoneE @912
    _ZN2sp5scene12MeshSaverSPM23writeChunkAnimationNodeEv @913
    _ZN2sp5scene12MeshSaverSPM24checkTexCoordsDimensionsEv @914
    _ZN2sp5scene12MeshSaverSPM27writeChunkAnimationSkeletalEv @915
    _ZN2sp5scene12MeshSaverSPM30writeChunkAnimationMorphTargetEv @916
    _ZN2sp5scene12MeshSaverSPM8saveMeshEPNS0_4MeshERKNS_2io6stringIcEE @917
    _ZN2sp5scene12MeshSaverSPMC1Ev @918
    _ZN2sp5scene12MeshSaverSPMC2Ev @919
    _ZN2sp5scene12MeshSaverSPMD0Ev @920
    _ZN2sp5scene12MeshSaverSPMD1Ev @921
    _ZN2sp5scene12MeshSaverSPMD2Ev @922
    _ZN2sp5scene12QuadTreeNode11addChildrenEv @923
    _ZN2sp5scene12QuadTreeNode14removeChildrenEv @924
    _ZN2sp5scene12QuadTreeNodeC1EPNS0_8TreeNodeE @925
    _ZN2sp5scene12QuadTreeNodeC2EPNS0_8TreeNodeE @926
    _ZN2sp5scene12QuadTreeNodeD0Ev @927
    _ZN2sp5scene12QuadTreeNodeD1Ev @928
    _ZN2sp5scene12QuadTreeNodeD2Ev @929
    _ZN2sp5scene13AnimationBone10renderBoneEPKS1_NS_3dim7matrix4IfEEf @930
    _ZN2sp5scene13AnimationBone11addKeyframeERKNS_3dim8vector3dIfEERKNS2_10quaternionES6_fb @931
    _ZN2sp5scene13AnimationBone11setKeyframeEjRKNS0_13SAnimKeyframeE @932
    _ZN2sp5scene13AnimationBone14removeKeyframeEj @933
    _ZN2sp5scene13AnimationBone14updateSequenceEii @934
    _ZN2sp5scene13AnimationBone15addVertexWeightEPNS_5video10MeshBufferEjf @935
    _ZN2sp5scene13AnimationBone18setupFrameLocationERNS_3dim8vector3dIfEERNS2_10quaternionES5_RKS4_RKS6_S9_b @936
    _ZN2sp5scene13AnimationBone18setupVertexWeightsERKSt6vectorINS0_13SVertexWeightESaIS3_EE @937
    _ZN2sp5scene13AnimationBone19updateInterpolationEv @938
    _ZN2sp5scene13AnimationBone19updateVertexWeightsEbb @939
    _ZN2sp5scene13AnimationBone7setSeekEf @940
    _ZN2sp5scene13AnimationBone9nextFrameEf @941
    _ZN2sp5scene13AnimationBoneC1ERjPS1_RKNS_3dim8vector3dIfEERKNS4_10quaternionES8_RKNS_2io6stringIcEEb @942
    _ZN2sp5scene13AnimationBoneC2ERjPS1_RKNS_3dim8vector3dIfEERKNS4_10quaternionES8_RKNS_2io6stringIcEEb @943
    _ZN2sp5scene13AnimationBoneD1Ev @944
    _ZN2sp5scene13AnimationBoneD2Ev @945
    _ZN2sp5scene13AnimationNode11addSequenceERKNS_3dim8vector3dIfEERKNS2_10quaternionES6_f @946
    _ZN2sp5scene13AnimationNode11setSequenceEjRKNS0_13SAnimKeyframeE @947
    _ZN2sp5scene13AnimationNode12updateSplineEv @948
    _ZN2sp5scene13AnimationNode14removeSequenceEj @949
    _ZN2sp5scene13AnimationNode15updateAnimationEb @950
    _ZN2sp5scene13AnimationNode18setSplineExpansionEf @951
    _ZN2sp5scene13AnimationNode18updateNextSequenceEv @952
    _ZN2sp5scene13AnimationNode20setSplineTranslationEb @953
    _ZN2sp5scene13AnimationNodeC1EPNS0_9SceneNodeE @954
    _ZN2sp5scene13AnimationNodeC2EPNS0_9SceneNodeE @955
    _ZN2sp5scene13AnimationNodeD0Ev @956
    _ZN2sp5scene13AnimationNodeD1Ev @957
    _ZN2sp5scene13AnimationNodeD2Ev @958
    _ZN2sp5scene13CollisionMesh14checkCollisionEPNS0_15CollisionSphereERNS0_21SCollisionMeshContactE @959
    _ZN2sp5scene13CollisionMesh17checkIntersectionERKNS_3dim6line3dIfEERNS0_21SCollisionMeshContactE @960
    _ZN2sp5scene13CollisionMesh20createCollisionModelERKSt4listIPNS0_4MeshESaIS4_EEh @961
    _ZN2sp5scene13CollisionMeshC1EPNS0_9SceneNodeEPNS0_4MeshEh @962
    _ZN2sp5scene13CollisionMeshC1EPNS0_9SceneNodeERKSt4listIPNS0_4MeshESaIS6_EEh @963
    _ZN2sp5scene13CollisionMeshC2EPNS0_9SceneNodeEPNS0_4MeshEh @964
    _ZN2sp5scene13CollisionMeshC2EPNS0_9SceneNodeERKSt4listIPNS0_4MeshESaIS6_EEh @965
    _ZN2sp5scene13CollisionMeshD0Ev @966
    _ZN2sp5scene13CollisionMeshD1Ev @967
    _ZN2sp5scene13CollisionMeshD2Ev @968
    _ZN2sp5scene13CollisionNode14checkCollisionEPNS0_15CollisionSphereERNS0_21SCollisionMeshContactE @969
    _ZN2sp5scene13CollisionNode14checkCollisionEPNS0_15CollisionSphereERNS0_21SCollisionNodeContactE @970
    _ZN2sp5scene13CollisionNode17checkIntersectionERKNS_3dim6line3dIfEERNS0_21SCollisionMeshContactE @971
    _ZN2sp5scene13CollisionNode17checkIntersectionERKNS_3dim6line3dIfEERNS0_21SCollisionNodeContactE @972
    _ZN2sp5scene13CollisionNodeC1EPNS0_9SceneNodeENS0_16ECollisionModelsE @973
    _ZN2sp5scene13CollisionNodeC2EPNS0_9SceneNodeENS0_16ECollisionModelsE @974
    _ZN2sp5scene13CollisionNodeD0Ev @975
    _ZN2sp5scene13CollisionNodeD1Ev @976
    _ZN2sp5scene13CollisionNodeD2Ev @977
    _ZN2sp5scene13MeshLoader3DS10readHeaderEv @978
    _ZN2sp5scene13MeshLoader3DS10readStringEv @979
    _ZN2sp5scene13MeshLoader3DS13readNextChunkEPNS1_9SChunk3DSE @980
    _ZN2sp5scene13MeshLoader3DS14readMeshMatrixEv @981
    _ZN2sp5scene13MeshLoader3DS14readTrackScaleEv @982
    _ZN2sp5scene13MeshLoader3DS16readMeshMaterialEv @983
    _ZN2sp5scene13MeshLoader3DS16readMeshVerticesEv @984
    _ZN2sp5scene13MeshLoader3DS17readMeshTexCoordsEv @985
    _ZN2sp5scene13MeshLoader3DS17readMeshTrianglesEv @986
    _ZN2sp5scene13MeshLoader3DS17readTrackPositionEv @987
    _ZN2sp5scene13MeshLoader3DS17readTrackRotationEv @988
    _ZN2sp5scene13MeshLoader3DS4initEv @989
    _ZN2sp5scene13MeshLoader3DS5clearEv @990
    _ZN2sp5scene13MeshLoader3DS6ignoreEj @991
    _ZN2sp5scene13MeshLoader3DS8loadMeshERKNS_2io6stringIcEES6_ @992
    _ZN2sp5scene13MeshLoader3DS9buildMeshERKNS1_15SObjectGroup3DSE @993
    _ZN2sp5scene13MeshLoader3DS9readChunkEPNS1_9SChunk3DSE @994
    _ZN2sp5scene13MeshLoader3DS9readChunkEv @995
    _ZN2sp5scene13MeshLoader3DS9readColorEv @996
    _ZN2sp5scene13MeshLoader3DSC1Ev @997
    _ZN2sp5scene13MeshLoader3DSC2Ev @998
    _ZN2sp5scene13MeshLoader3DSD0Ev @999
    _ZN2sp5scene13MeshLoader3DSD1Ev @1000
    _ZN2sp5scene13MeshLoader3DSD2Ev @1001
    _ZN2sp5scene13MeshLoaderB3D10breakChunkEv @1002
    _ZN2sp5scene13MeshLoaderB3D12getChunkSizeEv @1003
    _ZN2sp5scene13MeshLoaderB3D13loadModelDataEv @1004
    _ZN2sp5scene13MeshLoaderB3D13readChunkANIMEv @1005
    _ZN2sp5scene13MeshLoaderB3D13readChunkBONEERNS_2io6stringIcEE @1006
    _ZN2sp5scene13MeshLoaderB3D13readChunkBRUSEv @1007
    _ZN2sp5scene13MeshLoaderB3D13readChunkKEYSEv @1008
    _ZN2sp5scene13MeshLoaderB3D13readChunkMESHEv @1009
    _ZN2sp5scene13MeshLoaderB3D13readChunkNODEEv @1010
    _ZN2sp5scene13MeshLoaderB3D13readChunkTEXSEv @1011
    _ZN2sp5scene13MeshLoaderB3D13readChunkTRISEv @1012
    _ZN2sp5scene13MeshLoaderB3D13readChunkVRTSEv @1013
    _ZN2sp5scene13MeshLoaderB3D14buildAnimationEv @1014
    _ZN2sp5scene13MeshLoaderB3D14readChunkBlockENS_2io6stringIcEE @1015
    _ZN2sp5scene13MeshLoaderB3D15updateTexturingEv @1016
    _ZN2sp5scene13MeshLoaderB3D16loadChunkTextureENS_2io6stringIcEE @1017
    _ZN2sp5scene13MeshLoaderB3D4initEv @1018
    _ZN2sp5scene13MeshLoaderB3D5clearEv @1019
    _ZN2sp5scene13MeshLoaderB3D8loadMeshERKNS_2io6stringIcEES6_ @1020
    _ZN2sp5scene13MeshLoaderB3D9readChunkEv @1021
    _ZN2sp5scene13MeshLoaderB3DC1Ev @1022
    _ZN2sp5scene13MeshLoaderB3DC2Ev @1023
    _ZN2sp5scene13MeshLoaderB3DD0Ev @1024
    _ZN2sp5scene13MeshLoaderB3DD1Ev @1025
    _ZN2sp5scene13MeshLoaderB3DD2Ev @1026
    _ZN2sp5scene13MeshLoaderMD210buildModelEv @1027
    _ZN2sp5scene13MeshLoaderMD211interpolateEPNS_3dim8vector3dIfEES5_ @1028
    _ZN2sp5scene13MeshLoaderMD213loadModelDataENS_2io6stringIcEE @1029
    _ZN2sp5scene13MeshLoaderMD214buildAnimationEv @1030
    _ZN2sp5scene13MeshLoaderMD215getAnimationSeqEiRjS2_ @1031
    _ZN2sp5scene13MeshLoaderMD24initEv @1032
    _ZN2sp5scene13MeshLoaderMD25clearEv @1033
    _ZN2sp5scene13MeshLoaderMD28loadMeshERKNS_2io6stringIcEES6_ @1034
    _ZN2sp5scene13MeshLoaderMD29AnimList_E @1035 DATA
    _ZN2sp5scene13MeshLoaderMD2C1Ev @1036
    _ZN2sp5scene13MeshLoaderMD2C2Ev @1037
    _ZN2sp5scene13MeshLoaderMD2D0Ev @1038
    _ZN2sp5scene13MeshLoaderMD2D1Ev @1039
    _ZN2sp5scene13MeshLoaderMD2D2Ev @1040
    _ZN2sp5scene13MeshLoaderMD310buildModelEv @1041
    _ZN2sp5scene13MeshLoaderMD310loadHeaderEv @1042
    _ZN2sp5scene13MeshLoaderMD312loadSurfacesEv @1043
    _ZN2sp5scene13MeshLoaderMD313loadKeyframesEv @1044
    _ZN2sp5scene13MeshLoaderMD313loadModelDataEv @1045
    _ZN2sp5scene13MeshLoaderMD314buildAnimationEv @1046
    _ZN2sp5scene13MeshLoaderMD34initEv @1047
    _ZN2sp5scene13MeshLoaderMD35clearEv @1048
    _ZN2sp5scene13MeshLoaderMD38loadMeshERKNS_2io6stringIcEES6_ @1049
    _ZN2sp5scene13MeshLoaderMD3C1Ev @1050
    _ZN2sp5scene13MeshLoaderMD3C2Ev @1051
    _ZN2sp5scene13MeshLoaderMD3D0Ev @1052
    _ZN2sp5scene13MeshLoaderMD3D1Ev @1053
    _ZN2sp5scene13MeshLoaderMD3D2Ev @1054
    _ZN2sp5scene13MeshLoaderOBJ10buildModelEv @1055
    _ZN2sp5scene13MeshLoaderOBJ10parseGroupEv @1056
    _ZN2sp5scene13MeshLoaderOBJ11parseObjectEv @1057
    _ZN2sp5scene13MeshLoaderOBJ12getNextTokenEv @1058
    _ZN2sp5scene13MeshLoaderOBJ12parseTextureEv @1059
    _ZN2sp5scene13MeshLoaderOBJ13exitWithErrorERKNS_2io6stringIcEEb @1060
    _ZN2sp5scene13MeshLoaderOBJ14createNewGroupERKNS_2io6stringIcEE @1061
    _ZN2sp5scene13MeshLoaderOBJ16parseNewMaterialEv @1062
    _ZN2sp5scene13MeshLoaderOBJ16parseUseMaterialEv @1063
    _ZN2sp5scene13MeshLoaderOBJ16parseVertexCoordEv @1064
    _ZN2sp5scene13MeshLoaderOBJ17createNewMaterialERKNS_2io6stringIcEE @1065
    _ZN2sp5scene13MeshLoaderOBJ17parseColorDiffuseEv @1066
    _ZN2sp5scene13MeshLoaderOBJ17parseVertexNormalEv @1067
    _ZN2sp5scene13MeshLoaderOBJ19checkGroupExistenceEv @1068
    _ZN2sp5scene13MeshLoaderOBJ19parseVertexTexCoordEv @1069
    _ZN2sp5scene13MeshLoaderOBJ20parseMaterialLibraryEv @1070
    _ZN2sp5scene13MeshLoaderOBJ22parseCurrentLineInFileEv @1071
    _ZN2sp5scene13MeshLoaderOBJ8loadMeshERKNS_2io6stringIcEES6_ @1072
    _ZN2sp5scene13MeshLoaderOBJ9parseFaceEv @1073
    _ZN2sp5scene13MeshLoaderOBJ9parseFileEPNS_2io4FileE @1074
    _ZN2sp5scene13MeshLoaderOBJC1Ev @1075
    _ZN2sp5scene13MeshLoaderOBJC2Ev @1076
    _ZN2sp5scene13MeshLoaderOBJD0Ev @1077
    _ZN2sp5scene13MeshLoaderOBJD1Ev @1078
    _ZN2sp5scene13MeshLoaderOBJD2Ev @1079
    _ZN2sp5scene13MeshLoaderSPM10readHeaderEv @1080
    _ZN2sp5scene13MeshLoaderSPM15readChunkObjectEv @1081
    _ZN2sp5scene13MeshLoaderSPM15readChunkVertexEv @1082
    _ZN2sp5scene13MeshLoaderSPM16readChunkSubMeshEPNS0_4MeshE @1083
    _ZN2sp5scene13MeshLoaderSPM16readChunkSurfaceEv @1084
    _ZN2sp5scene13MeshLoaderSPM16readChunkTextureEv @1085
    _ZN2sp5scene13MeshLoaderSPM17readChunkTriangleEv @1086
    _ZN2sp5scene13MeshLoaderSPM22readChunkAnimationBoneEv @1087
    _ZN2sp5scene13MeshLoaderSPM22readChunkAnimationNodeEv @1088
    _ZN2sp5scene13MeshLoaderSPM26readChunkAnimationSkeletalEv @1089
    _ZN2sp5scene13MeshLoaderSPM29readChunkAnimationMorphTargetEv @1090
    _ZN2sp5scene13MeshLoaderSPM8loadMeshERKNS_2io6stringIcEES6_ @1091
    _ZN2sp5scene13MeshLoaderSPMC1Ev @1092
    _ZN2sp5scene13MeshLoaderSPMC2Ev @1093
    _ZN2sp5scene13MeshLoaderSPMD0Ev @1094
    _ZN2sp5scene13MeshLoaderSPMD1Ev @1095
    _ZN2sp5scene13MeshLoaderSPMD2Ev @1096
    _ZN2sp5scene14MeshLoaderMS3D10buildModelEv @1097
    _ZN2sp5scene14MeshLoaderMS3D13loadModelDataENS_2io6stringIcEE @1098
    _ZN2sp5scene14MeshLoaderMS3D14buildAnimationEv @1099
    _ZN2sp5scene14MeshLoaderMS3D15fillBoneWeightsEiRSt6vectorINS0_13SVertexWeightESaIS3_EE @1100
    _ZN2sp5scene14MeshLoaderMS3D15getAnimRotationENS_3dim8vector3dIfEE @1101
    _ZN2sp5scene14MeshLoaderMS3D16addJointKeyframeEiRNS1_10SJointMS3DEPvb @1102
    _ZN2sp5scene14MeshLoaderMS3D16setNextBufferPosERPKhi @1103
    _ZN2sp5scene14MeshLoaderMS3D4initEv @1104
    _ZN2sp5scene14MeshLoaderMS3D5clearEv @1105
    _ZN2sp5scene14MeshLoaderMS3D8loadMeshERKNS_2io6stringIcEES6_ @1106
    _ZN2sp5scene14MeshLoaderMS3DC1Ev @1107
    _ZN2sp5scene14MeshLoaderMS3DC2Ev @1108
    _ZN2sp5scene14MeshLoaderMS3DD0Ev @1109
    _ZN2sp5scene14MeshLoaderMS3DD1Ev @1110
    _ZN2sp5scene14MeshLoaderMS3DD2Ev @1111
    _ZN2sp5scene14SMeshConstruct19checkDefaultShadingENS0_12EBasicMeshesE @1112
    _ZN2sp5scene14SMeshConstruct20checkDefaultSegmentsENS0_12EBasicMeshesERi @1113
    _ZN2sp5scene14SMeshConstructC1EifbNS_5video13EShadingTypesE @1114
    _ZN2sp5scene14SMeshConstructC1EiffbNS_5video13EShadingTypesE @1115
    _ZN2sp5scene14SMeshConstructC1EiiffbNS_5video13EShadingTypesE @1116
    _ZN2sp5scene14SMeshConstructC1EiiffffbNS_5video13EShadingTypesE @1117
    _ZN2sp5scene14SMeshConstructC1Ev @1118
    _ZN2sp5scene14SMeshConstructC2EifbNS_5video13EShadingTypesE @1119
    _ZN2sp5scene14SMeshConstructC2EiffbNS_5video13EShadingTypesE @1120
    _ZN2sp5scene14SMeshConstructC2EiiffbNS_5video13EShadingTypesE @1121
    _ZN2sp5scene14SMeshConstructC2EiiffffbNS_5video13EShadingTypesE @1122
    _ZN2sp5scene14SMeshConstructC2Ev @1123
    _ZN2sp5scene14SMeshConstructD1Ev @1124
    _ZN2sp5scene14SMeshConstructD2Ev @1125
    _ZN2sp5scene14StencilManager14addLightSourceEPNS0_18SShadowLightSourceE @1126
    _ZN2sp5scene14StencilManager16addCastCloudMeshEPNS0_4MeshE @1127
    _ZN2sp5scene14StencilManager17removeLightSourceEPNS0_18SShadowLightSourceE @1128
    _ZN2sp5scene14StencilManager18updateConnectivityEPNS0_15CastCloudObjectE @1129
    _ZN2sp5scene14StencilManager18updateShadowVolumeEPNS0_15CastCloudObjectENS_3dim8vector3dIfEEf @1130
    _ZN2sp5scene14StencilManager19removeCastCloudMeshEPNS0_4MeshE @1131
    _ZN2sp5scene14StencilManager19updateStencilShadowEPNS0_4MeshE @1132
    _ZN2sp5scene14StencilManager20renderStencilShadowsEPNS0_6CameraE @1133
    _ZN2sp5scene14StencilManager23updateCalculationPlanesEPNS0_15CastCloudObjectE @1134
    _ZN2sp5scene14StencilManagerC1Ev @1135
    _ZN2sp5scene14StencilManagerC2Ev @1136
    _ZN2sp5scene14StencilManagerD1Ev @1137
    _ZN2sp5scene14StencilManagerD2Ev @1138
    _ZN2sp5scene15CastCloudObject14addLightSourceEPNS0_18SShadowLightSourceE @1139
    _ZN2sp5scene15CastCloudObject17removeLightSourceEPNS0_18SShadowLightSourceE @1140
    _ZN2sp5scene15CastCloudObjectC1EPNS0_4MeshE @1141
    _ZN2sp5scene15CastCloudObjectC2EPNS0_4MeshE @1142
    _ZN2sp5scene15CastCloudObjectD1Ev @1143
    _ZN2sp5scene15CastCloudObjectD2Ev @1144
    _ZN2sp5scene15CollisionSphere14checkCollisionEPS1_RNS0_21SCollisionNodeContactE @1145
    _ZN2sp5scene15CollisionSphere17checkIntersectionERKNS_3dim6line3dIfEERNS0_21SCollisionNodeContactE @1146
    _ZN2sp5scene15CollisionSphereC1EPNS0_9SceneNodeEf @1147
    _ZN2sp5scene15CollisionSphereC2EPNS0_9SceneNodeEf @1148
    _ZN2sp5scene15CollisionSphereD0Ev @1149
    _ZN2sp5scene15CollisionSphereD1Ev @1150
    _ZN2sp5scene15CollisionSphereD2Ev @1151
    _ZN2sp5scene15SceneLoaderBSP110buildModelEv @1152
    _ZN2sp5scene15SceneLoaderBSP110readHeaderEv @1153
    _ZN2sp5scene15SceneLoaderBSP112calcTexCoordERKNS_3dim8vector3dIfEERKNS1_15STextureInfoBSPE @1154
    _ZN2sp5scene15SceneLoaderBSP112convertColorERNS_2io6stringIcEE @1155
    _ZN2sp5scene15SceneLoaderBSP113convertVectorERNS_2io6stringIcEE @1156
    _ZN2sp5scene15SceneLoaderBSP113createPolygonERSt6vectorIsSaIsEE @1157
    _ZN2sp5scene15SceneLoaderBSP113examineScriptERSt6vectorINS_2io6stringIcEESaIS5_EE @1158
    _ZN2sp5scene15SceneLoaderBSP113pairTrianglesERSt6vectorINS1_8SEdgeBSPESaIS3_EE @1159
    _ZN2sp5scene15SceneLoaderBSP113readLumpEdgesEv @1160
    _ZN2sp5scene15SceneLoaderBSP113readLumpFacesEv @1161
    _ZN2sp5scene15SceneLoaderBSP113readLumpLeafsEv @1162
    _ZN2sp5scene15SceneLoaderBSP113readLumpNodesEv @1163
    _ZN2sp5scene15SceneLoaderBSP114readLumpModelsEv @1164
    _ZN2sp5scene15SceneLoaderBSP114readLumpPlanesEv @1165
    _ZN2sp5scene15SceneLoaderBSP115readLumpTexInfoEv @1166
    _ZN2sp5scene15SceneLoaderBSP115readLumpVisDataEv @1167
    _ZN2sp5scene15SceneLoaderBSP115readTexturesRAWEv @1168
    _ZN2sp5scene15SceneLoaderBSP116readLumpEntitiesEv @1169
    _ZN2sp5scene15SceneLoaderBSP116readLumpVerticesEv @1170
    _ZN2sp5scene15SceneLoaderBSP117readLumpClipNodesEv @1171
    _ZN2sp5scene15SceneLoaderBSP117readLumpEdgesListEv @1172
    _ZN2sp5scene15SceneLoaderBSP117readLumpFacesListEv @1173
    _ZN2sp5scene15SceneLoaderBSP117readLumpLightMapsEv @1174
    _ZN2sp5scene15SceneLoaderBSP117readScriptSpecWADERNS_2io6stringIcEE @1175
    _ZN2sp5scene15SceneLoaderBSP118executeScriptBlockERKNS1_15SScriptBlockBSPE @1176
    _ZN2sp5scene15SceneLoaderBSP119findNextTexturePathENS_2io6stringIcEERi @1177
    _ZN2sp5scene15SceneLoaderBSP120readLumpWallTexturesEv @1178
    _ZN2sp5scene15SceneLoaderBSP14initEv @1179
    _ZN2sp5scene15SceneLoaderBSP15clearEv @1180
    _ZN2sp5scene15SceneLoaderBSP19loadSceneERKNS_2io6stringIcEES6_i @1181
    _ZN2sp5scene15SceneLoaderBSP19pairEdgesERSt6vectorIsSaIsEE @1182
    _ZN2sp5scene15SceneLoaderBSP19readLumpsEv @1183
    _ZN2sp5scene15SceneLoaderBSP1C1Ev @1184
    _ZN2sp5scene15SceneLoaderBSP1C2Ev @1185
    _ZN2sp5scene15SceneLoaderBSP1D0Ev @1186
    _ZN2sp5scene15SceneLoaderBSP1D1Ev @1187
    _ZN2sp5scene15SceneLoaderBSP1D2Ev @1188
    _ZN2sp5scene15SceneLoaderBSP310buildModelEv @1189
    _ZN2sp5scene15SceneLoaderBSP310readHeaderEv @1190
    _ZN2sp5scene15SceneLoaderBSP313Tessellation_E @1191 DATA
    _ZN2sp5scene15SceneLoaderBSP313examineScriptERSt6vectorINS_2io6stringIcEESaIS5_EE @1192
    _ZN2sp5scene15SceneLoaderBSP313readLumpFacesEv @1193
    _ZN2sp5scene15SceneLoaderBSP313readLumpLeafsEv @1194
    _ZN2sp5scene15SceneLoaderBSP313readLumpNodesEv @1195
    _ZN2sp5scene15SceneLoaderBSP314readLumpEffecsEv @1196
    _ZN2sp5scene15SceneLoaderBSP314readLumpModelsEv @1197
    _ZN2sp5scene15SceneLoaderBSP314readLumpPlanesEv @1198
    _ZN2sp5scene15SceneLoaderBSP315createNewVertexERNS1_10SVertexBSPERNS1_8SFaceBSPE @1199
    _ZN2sp5scene15SceneLoaderBSP315readLumpBrushesEv @1200
    _ZN2sp5scene15SceneLoaderBSP315readLumpVisDataEv @1201
    _ZN2sp5scene15SceneLoaderBSP315setTessellationEi @1202
    _ZN2sp5scene15SceneLoaderBSP316readLumpEntitiesEv @1203
    _ZN2sp5scene15SceneLoaderBSP316readLumpTexturesEv @1204
    _ZN2sp5scene15SceneLoaderBSP316readLumpVertexesEv @1205
    _ZN2sp5scene15SceneLoaderBSP317getScriptLineTypeERNS_2io6stringIcEE @1206
    _ZN2sp5scene15SceneLoaderBSP317readLumpLeafFacesEv @1207
    _ZN2sp5scene15SceneLoaderBSP317readLumpLightMapsEv @1208
    _ZN2sp5scene15SceneLoaderBSP317readLumpLightVolsEv @1209
    _ZN2sp5scene15SceneLoaderBSP317readLumpMeshVertsEv @1210
    _ZN2sp5scene15SceneLoaderBSP318getScriptLineValueERNS_2io6stringIcEE @1211
    _ZN2sp5scene15SceneLoaderBSP318readLumpBrushSidesEv @1212
    _ZN2sp5scene15SceneLoaderBSP319getScriptLineVectorERNS_2io6stringIcEES4_ @1213
    _ZN2sp5scene15SceneLoaderBSP319readLumpLeafBrushesEv @1214
    _ZN2sp5scene15SceneLoaderBSP39loadSceneERKNS_2io6stringIcEES6_i @1215
    _ZN2sp5scene15SceneLoaderBSP39readLumpsEv @1216
    _ZN2sp5scene15SceneLoaderBSP3C1Ev @1217
    _ZN2sp5scene15SceneLoaderBSP3C2Ev @1218
    _ZN2sp5scene15SceneLoaderBSP3D0Ev @1219
    _ZN2sp5scene15SceneLoaderBSP3D1Ev @1220
    _ZN2sp5scene15SceneLoaderBSP3D2Ev @1221
    _ZN2sp5scene15SceneLoaderSPSB10readHeaderEv @1222
    _ZN2sp5scene15SceneLoaderSPSB10readLightsEv @1223
    _ZN2sp5scene15SceneLoaderSPSB10readMeshesEv @1224
    _ZN2sp5scene15SceneLoaderSPSB11applyQueuesEv @1225
    _ZN2sp5scene15SceneLoaderSPSB11readCamerasEv @1226
    _ZN2sp5scene15SceneLoaderSPSB11readShadersEv @1227
    _ZN2sp5scene15SceneLoaderSPSB12MAGIC_NUMBERE @1228 DATA
    _ZN2sp5scene15SceneLoaderSPSB12readMaterialERNS1_9SMaterialEPNS_5video14MaterialStatesE @1229
    _ZN2sp5scene15SceneLoaderSPSB12readTexturesEv @1230
    _ZN2sp5scene15SceneLoaderSPSB13readLightmapsEv @1231
    _ZN2sp5scene15SceneLoaderSPSB13readWayPointsEv @1232
    _ZN2sp5scene15SceneLoaderSPSB14readBaseObjectERNS1_11SBaseObjectE @1233
    _ZN2sp5scene15SceneLoaderSPSB15applyBaseObjectEPNS0_9SceneNodeERKNS1_11SBaseObjectE @1234
    _ZN2sp5scene15SceneLoaderSPSB15readSceneConfigEv @1235
    _ZN2sp5scene15SceneLoaderSPSB17readLightmapSceneEv @1236
    _ZN2sp5scene15SceneLoaderSPSB18readShaderRTObjectERNS1_15SShaderRTObjectE @1237
    _ZN2sp5scene15SceneLoaderSPSB18readTextureClassesEv @1238
    _ZN2sp5scene15SceneLoaderSPSB19VERSION_MAX_SUPPORTE @1239 DATA
    _ZN2sp5scene15SceneLoaderSPSB19VERSION_MIN_SUPPORTE @1240 DATA
    _ZN2sp5scene15SceneLoaderSPSB23applyCameraRenderTargetEPNS0_6CameraEPNS_5video7TextureE @1241
    _ZN2sp5scene15SceneLoaderSPSB8seekLumpERKNS1_5SLumpE @1242
    _ZN2sp5scene15SceneLoaderSPSB9loadSceneERKNS_2io6stringIcEES6_i @1243
    _ZN2sp5scene15SceneLoaderSPSBC1Ev @1244
    _ZN2sp5scene15SceneLoaderSPSBC2Ev @1245
    _ZN2sp5scene15SceneLoaderSPSBD0Ev @1246
    _ZN2sp5scene15SceneLoaderSPSBD1Ev @1247
    _ZN2sp5scene15SceneLoaderSPSBD2Ev @1248
    _ZN2sp5scene16SceneGraphSimple6renderEv @1249
    _ZN2sp5scene16SceneGraphSimpleC1Ev @1250
    _ZN2sp5scene16SceneGraphSimpleC2Ev @1251
    _ZN2sp5scene16SceneGraphSimpleD0Ev @1252
    _ZN2sp5scene16SceneGraphSimpleD1Ev @1253
    _ZN2sp5scene16SceneGraphSimpleD2Ev @1254
    _ZN2sp5scene17AnimationSkeletal10removeBoneERPNS0_13AnimationBoneEb @1255
    _ZN2sp5scene17AnimationSkeletal10updateBoneEPNS0_13AnimationBoneE @1256
    _ZN2sp5scene17AnimationSkeletal14setBonesEnableEb @1257
    _ZN2sp5scene17AnimationSkeletal14updateSkeletonEv @1258
    _ZN2sp5scene17AnimationSkeletal15updateAnimationEb @1259
    _ZN2sp5scene17AnimationSkeletal4playENS0_12EAnimMethodsENS0_10EAnimModesEiib @1260
    _ZN2sp5scene17AnimationSkeletal6recordEf @1261
    _ZN2sp5scene17AnimationSkeletal7addBoneEPNS0_13AnimationBoneERKNS_3dim8vector3dIfEERKNS4_10quaternionES8_RKNS_2io6stringIcEEb @1262
    _ZN2sp5scene17AnimationSkeletal7setSeekEf @1263
    _ZN2sp5scene17AnimationSkeletal7setSeekEif @1264
    _ZN2sp5scene17AnimationSkeletalC1EPNS0_4MeshE @1265
    _ZN2sp5scene17AnimationSkeletalC2EPNS0_4MeshE @1266
    _ZN2sp5scene17AnimationSkeletalD0Ev @1267
    _ZN2sp5scene17AnimationSkeletalD1Ev @1268
    _ZN2sp5scene17AnimationSkeletalD2Ev @1269
    _ZN2sp5scene17CollisionDetector11updateSceneEv @1270
    _ZN2sp5scene17CollisionDetector13checkFaceSideENS_5video10EFaceTypesERKNS_3dim10triangle3dIfNS4_8vector3dIfEEEERKS7_ @1271
    _ZN2sp5scene17CollisionDetector14addPickingMeshEPNS0_4MeshE @1272
    _ZN2sp5scene17CollisionDetector14processContactEPNS0_16SCollisionObjectERKNS0_17SCollisionContactERKNS_3dim8vector3dIfEE @1273
    _ZN2sp5scene17CollisionDetector14processPickingERKNS_3dim6line3dIfEE @1274
    _ZN2sp5scene17CollisionDetector15createCollisionEv @1275
    _ZN2sp5scene17CollisionDetector15deleteCollisionERPNS0_9CollisionE @1276
    _ZN2sp5scene17CollisionDetector16addCollisionMeshEPNS0_4MeshEPNS0_9CollisionENS_5video10EFaceTypesE @1277
    _ZN2sp5scene17CollisionDetector16addPickingObjectEPNS0_9SceneNodeENS0_13EPickingTypesEfRKNS_3dim8aabbox3dIfEE @1278
    _ZN2sp5scene17CollisionDetector16getPickingObjectEPNS0_9SceneNodeE @1279
    _ZN2sp5scene17CollisionDetector16meshIntersectionEPNS0_4MeshES3_ @1280
    _ZN2sp5scene17CollisionDetector16pickIntersectionERKNS_3dim6line3dIfEENS_5video10EFaceTypesE @1281
    _ZN2sp5scene17CollisionDetector16pickIntersectionERKNS_3dim6line3dIfEERNS0_15SPickingContactE @1282
    _ZN2sp5scene17CollisionDetector16pickIntersectionERKNS_3dim8vector3dIfEES6_ @1283
    _ZN2sp5scene17CollisionDetector18addCollisionObjectEPNS0_9SceneNodeEPNS0_9CollisionEfRKNS_3dim8aabbox3dIfEE @1284
    _ZN2sp5scene17CollisionDetector18checkInviewLineBoxEPNS0_14SPickingObjectERKNS_3dim6line3dIfEE @1285
    _ZN2sp5scene17CollisionDetector18getCollisionObjectEPNS0_9SceneNodeE @1286
    _ZN2sp5scene17CollisionDetector19removePickingObjectEPNS0_14SPickingObjectE @1287
    _ZN2sp5scene17CollisionDetector21checkInviewLineSphereEPNS0_14SPickingObjectERKNS_3dim6line3dIfEE @1288
    _ZN2sp5scene17CollisionDetector21removeCollisionObjectEPNS0_16SCollisionObjectE @1289
    _ZN2sp5scene17CollisionDetector22checkInviewLinePolygonEPNS0_14SPickingObjectERKNS_3dim6line3dIfEE @1290
    _ZN2sp5scene17CollisionDetector24checkIntersectionLineBoxEPNS0_14SPickingObjectERKNS_3dim6line3dIfEE @1291
    _ZN2sp5scene17CollisionDetector24getPolygonPickingContactEPNS0_14SPickingObjectESt14_List_iteratorINS0_21STreeNodeTriangleDataEERKNS_3dim10triangle3dIfNS7_8vector3dIfEEEERKSA_ @1292
    _ZN2sp5scene17CollisionDetector24getPolygonPickingContactEPNS0_14SPickingObjectEiRKNS_3dim10triangle3dIfNS4_8vector3dIfEEEERKS7_ @1293
    _ZN2sp5scene17CollisionDetector25checkCollisionSphereToBoxEPNS0_16SCollisionObjectES3_ @1294
    _ZN2sp5scene17CollisionDetector25checkIntersectionMeshMeshEPNS0_4MeshES3_ @1295
    _ZN2sp5scene17CollisionDetector25checkIntersectionMeshMeshEPNS0_4MeshES3_PNS0_10OcTreeNodeE @1296
    _ZN2sp5scene17CollisionDetector25checkIntersectionMeshMeshEPNS0_4MeshES3_PNS0_10OcTreeNodeES5_ @1297
    _ZN2sp5scene17CollisionDetector26checkCollisionBoxToPolygonEPNS0_16SCollisionObjectES3_ @1298
    _ZN2sp5scene17CollisionDetector26checkInviewLinePolygonTreeEPNS0_14SPickingObjectERKNS_3dim6line3dIfEE @1299
    _ZN2sp5scene17CollisionDetector26getPolygonCollisionContactEPNS0_16SCollisionObjectES3_St14_List_iteratorINS0_21STreeNodeTriangleDataEERKNS_3dim10triangle3dIfNS7_8vector3dIfEEEERKSA_ @1300
    _ZN2sp5scene17CollisionDetector26getPolygonCollisionContactEPNS0_16SCollisionObjectES3_iRKNS_3dim10triangle3dIfNS4_8vector3dIfEEEERKS7_ @1301
    _ZN2sp5scene17CollisionDetector27checkIntersectionLineSphereEPNS0_14SPickingObjectERKNS_3dim6line3dIfEE @1302
    _ZN2sp5scene17CollisionDetector28checkCollisionSphereToSphereEPNS0_16SCollisionObjectES3_ @1303
    _ZN2sp5scene17CollisionDetector28checkIntersectionLinePolygonEPNS0_14SPickingObjectERKNS_3dim6line3dIfEE @1304
    _ZN2sp5scene17CollisionDetector29checkCollisionSphereToPolygonEPNS0_16SCollisionObjectES3_ @1305
    _ZN2sp5scene17CollisionDetector32checkIntersectionLinePolygonTreeEPNS0_14SPickingObjectERKNS_3dim6line3dIfEE @1306
    _ZN2sp5scene17CollisionDetector33checkCollisionSphereToPolygonTreeEPNS0_16SCollisionObjectES3_ @1307
    _ZN2sp5scene17CollisionDetectorC1Ev @1308
    _ZN2sp5scene17CollisionDetectorC2Ev @1309
    _ZN2sp5scene17CollisionDetectorD1Ev @1310
    _ZN2sp5scene17CollisionDetectorD2Ev @1311
    _ZN2sp5scene17FirstPersonCamera13updateControlEv @1312
    _ZN2sp5scene17FirstPersonCamera20updateCameraMovementEv @1313
    _ZN2sp5scene17FirstPersonCamera20updateCameraRotationEv @1314
    _ZN2sp5scene17FirstPersonCamera8drawMenuEv @1315
    _ZN2sp5scene17FirstPersonCameraC1Ev @1316
    _ZN2sp5scene17FirstPersonCameraC2Ev @1317
    _ZN2sp5scene17FirstPersonCameraD0Ev @1318
    _ZN2sp5scene17FirstPersonCameraD1Ev @1319
    _ZN2sp5scene17FirstPersonCameraD2Ev @1320
    _ZN2sp5scene18BasicMeshGenerator10createConeEv @1321
    _ZN2sp5scene18BasicMeshGenerator10createCubeEv @1322
    _ZN2sp5scene18BasicMeshGenerator10createDiskEv @1323
    _ZN2sp5scene18BasicMeshGenerator10createMeshEPNS0_4MeshENS0_12EBasicMeshesERKNS0_14SMeshConstructE @1324
    _ZN2sp5scene18BasicMeshGenerator10createPipeEv @1325
    _ZN2sp5scene18BasicMeshGenerator11addQuadFaceENS_3dim8vector3dIfEENS2_7point2dIfEES4_S6_S4_S4_b @1326
    _ZN2sp5scene18BasicMeshGenerator11createPlaneEv @1327
    _ZN2sp5scene18BasicMeshGenerator11createTorusEv @1328
    _ZN2sp5scene18BasicMeshGenerator12createSkyBoxEPPNS_5video7TextureEf @1329
    _ZN2sp5scene18BasicMeshGenerator12createSphereEv @1330
    _ZN2sp5scene18BasicMeshGenerator12createSpiralEv @1331
    _ZN2sp5scene18BasicMeshGenerator12createTeapotEv @1332
    _ZN2sp5scene18BasicMeshGenerator14createCylinderEv @1333
    _ZN2sp5scene18BasicMeshGenerator15createIcosphereEv @1334
    _ZN2sp5scene18BasicMeshGenerator15createTorusknotEv @1335
    _ZN2sp5scene18BasicMeshGenerator16createOctahedronEv @1336
    _ZN2sp5scene18BasicMeshGenerator16createSuperShapeEPNS0_4MeshEPKfi @1337
    _ZN2sp5scene18BasicMeshGenerator17createBezierPatchEPA4_KNS_3dim8vector3dIfEEib @1338
    _ZN2sp5scene18BasicMeshGenerator17createHeightFieldEPKNS_5video7TextureEi @1339
    _ZN2sp5scene18BasicMeshGenerator17createIcosahedronEv @1340
    _ZN2sp5scene18BasicMeshGenerator17createTetrahedronEv @1341
    _ZN2sp5scene18BasicMeshGenerator18createDodecahedronEv @1342
    _ZN2sp5scene18BasicMeshGenerator18getSuperShapeModelENS0_17ESuperShapeModelsEPf @1343
    _ZN2sp5scene18BasicMeshGenerator19createCuboctahedronEv @1344
    _ZN2sp5scene18BasicMeshGenerator21createBezierPatchFaceEPNS0_4MeshEjPA4_KNS_3dim8vector3dIfEEib @1345
    _ZN2sp5scene18BasicMeshGenerator23createSuperShapeSurfaceEPKfi @1346
    _ZN2sp5scene18BasicMeshGenerator26computeSuperShapeNextFrameEfffffff @1347
    _ZN2sp5scene18BasicMeshGenerator7addFaceEPKNS_3dim8vector3dIfEEPKNS2_7point2dIfEEjjjjj @1348
    _ZN2sp5scene18BasicMeshGenerator7addFaceERKNS_3dim8vector3dIfEES6_S6_ @1349
    _ZN2sp5scene18BasicMeshGenerator7addFaceERKNS_3dim8vector3dIfEES6_S6_RKNS2_7point2dIfEESA_SA_ @1350
    _ZN2sp5scene18BasicMeshGenerator7addFaceEjjj @1351
    _ZN2sp5scene18BasicMeshGenerator7addFaceEjjjj @1352
    _ZN2sp5scene18BasicMeshGenerator7addFaceEjjjjj @1353
    _ZN2sp5scene18BasicMeshGenerator9addVertexEffffff @1354
    _ZN2sp5scene18BasicMeshGeneratorC1Ev @1355
    _ZN2sp5scene18BasicMeshGeneratorC2Ev @1356
    _ZN2sp5scene18BasicMeshGeneratorD1Ev @1357
    _ZN2sp5scene18BasicMeshGeneratorD2Ev @1358
    _ZN2sp5scene20AnimationMorphTarget11addSequenceERKNS0_24SAnimMorphTargetSequenceE @1359
    _ZN2sp5scene20AnimationMorphTarget11setSequenceEjRKNS0_24SAnimMorphTargetSequenceE @1360
    _ZN2sp5scene20AnimationMorphTarget13checkDataSizeEi @1361
    _ZN2sp5scene20AnimationMorphTarget14removeSequenceEj @1362
    _ZN2sp5scene20AnimationMorphTarget15updateAnimationEb @1363
    _ZN2sp5scene20AnimationMorphTarget16setVertexWeightsERKSt6vectorINS0_28SAnimMorphTargetVertexWeightESaIS3_EE @1364
    _ZN2sp5scene20AnimationMorphTarget18updateNextSequenceEv @1365
    _ZN2sp5scene20AnimationMorphTarget23setVertexWeightsDefaultEv @1366
    _ZN2sp5scene20AnimationMorphTargetC1EPNS0_4MeshE @1367
    _ZN2sp5scene20AnimationMorphTargetC2EPNS0_4MeshE @1368
    _ZN2sp5scene20AnimationMorphTargetD0Ev @1369
    _ZN2sp5scene20AnimationMorphTargetD1Ev @1370
    _ZN2sp5scene20AnimationMorphTargetD2Ev @1371
    _ZN2sp5scene25SceneGraphSimpleChildTree11addRootNodeEPNS0_9SceneNodeE @1372
    _ZN2sp5scene25SceneGraphSimpleChildTree12addSceneNodeEPNS0_10RenderNodeE @1373
    _ZN2sp5scene25SceneGraphSimpleChildTree12addSceneNodeEPNS0_5LightE @1374
    _ZN2sp5scene25SceneGraphSimpleChildTree12addSceneNodeEPNS0_6CameraE @1375
    _ZN2sp5scene25SceneGraphSimpleChildTree12addSceneNodeEPNS0_9SceneNodeE @1376
    _ZN2sp5scene25SceneGraphSimpleChildTree14removeRootNodeEPNS0_9SceneNodeE @1377
    _ZN2sp5scene25SceneGraphSimpleChildTree14renderRootNodeEPNS0_9SceneNodeE @1378
    _ZN2sp5scene25SceneGraphSimpleChildTree14updateRootNodeEPNS0_9SceneNodeE @1379
    _ZN2sp5scene25SceneGraphSimpleChildTree15removeSceneNodeEPNS0_10RenderNodeE @1380
    _ZN2sp5scene25SceneGraphSimpleChildTree15removeSceneNodeEPNS0_5LightE @1381
    _ZN2sp5scene25SceneGraphSimpleChildTree15removeSceneNodeEPNS0_6CameraE @1382
    _ZN2sp5scene25SceneGraphSimpleChildTree15removeSceneNodeEPNS0_9SceneNodeE @1383
    _ZN2sp5scene25SceneGraphSimpleChildTree6renderEv @1384
    _ZN2sp5scene25SceneGraphSimpleChildTreeC1Ev @1385
    _ZN2sp5scene25SceneGraphSimpleChildTreeC2Ev @1386
    _ZN2sp5scene25SceneGraphSimpleChildTreeD0Ev @1387
    _ZN2sp5scene25SceneGraphSimpleChildTreeD1Ev @1388
    _ZN2sp5scene25SceneGraphSimpleChildTreeD2Ev @1389
    _ZN2sp5scene4Mesh10addTextureEPNS_5video7TextureEh @1390
    _ZN2sp5scene4Mesh10setShadingENS_5video13EShadingTypesEb @1391
    _ZN2sp5scene4Mesh11mergeFamilyEb @1392
    _ZN2sp5scene4Mesh12addAnimationENS0_15EAnimationTypesERKNS_2io6stringIcEE @1393
    _ZN2sp5scene4Mesh12centerOriginEv @1394
    _ZN2sp5scene4Mesh12meshSpherifyEf @1395
    _ZN2sp5scene4Mesh12setReferenceEPS1_bb @1396
    _ZN2sp5scene4Mesh13addLODSubMeshEPS1_b @1397
    _ZN2sp5scene4Mesh13createOctTreeEa @1398
    _ZN2sp5scene4Mesh13deleteOctTreeEv @1399
    _ZN2sp5scene4Mesh13flipTrianglesEv @1400
    _ZN2sp5scene4Mesh13meshTransformERKNS_3dim7matrix4IfEE @1401
    _ZN2sp5scene4Mesh13meshTransformERKNS_3dim8vector3dIfEE @1402
    _ZN2sp5scene4Mesh13meshTranslateERKNS_3dim8vector3dIfEE @1403
    _ZN2sp5scene4Mesh13updateNormalsEv @1404
    _ZN2sp5scene4Mesh14setLODDistanceEf @1405
    _ZN2sp5scene4Mesh14textureAutoMapEhfjb @1406
    _ZN2sp5scene4Mesh16createMeshBufferEPNS_5video12VertexFormatENS2_18ERendererDataTypesE @1407
    _ZN2sp5scene4Mesh16deleteMeshBufferEj @1408
    _ZN2sp5scene4Mesh16updateMeshBufferEv @1409
    _ZN2sp5scene4Mesh17clearLODSubMeshesEv @1410
    _ZN2sp5scene4Mesh17deleteMeshBuffersEv @1411
    _ZN2sp5scene4Mesh17setLODSubMeshListERKSt6vectorIPS1_SaIS3_EE @1412
    _ZN2sp5scene4Mesh17updateIndexBufferEv @1413
    _ZN2sp5scene4Mesh18updateTangentSpaceEhh @1414
    _ZN2sp5scene4Mesh18updateVertexBufferEv @1415
    _ZN2sp5scene4Mesh19optimizeMeshBuffersEv @1416
    _ZN2sp5scene4Mesh19updateLevelOfDetailEv @1417
    _ZN2sp5scene4Mesh20optimizeTransparencyEv @1418
    _ZN2sp5scene4Mesh25clipConcatenatedTrianglesEv @1419
    _ZN2sp5scene4Mesh4copyEPKS1_ @1420
    _ZN2sp5scene4Mesh4initEv @1421
    _ZN2sp5scene4Mesh5clearEv @1422
    _ZN2sp5scene4Mesh5paintERKNS_5video5colorEb @1423
    _ZN2sp5scene4Mesh6renderEv @1424
    _ZN2sp5scene4Mesh6setLODEb @1425
    _ZN2sp5scene4Mesh7meshFitERKNS_3dim8vector3dIfEES6_ @1426
    _ZN2sp5scene4Mesh8meshFlipEbbb @1427
    _ZN2sp5scene4Mesh8meshFlipEv @1428
    _ZN2sp5scene4Mesh8meshTurnERKNS_3dim8vector3dIfEE @1429
    _ZN2sp5scene4Mesh9meshTwistEf @1430
    _ZN2sp5scene4MeshC1Ev @1431
    _ZN2sp5scene4MeshC2Ev @1432
    _ZN2sp5scene4MeshD0Ev @1433
    _ZN2sp5scene4MeshD1Ev @1434
    _ZN2sp5scene4MeshD2Ev @1435
    _ZN2sp5scene5Light10setVisibleEb @1436
    _ZN2sp5scene5Light11setSpotConeEff @1437
    _ZN2sp5scene5Light12setDirectionERKNS_3dim7matrix4IfEE @1438
    _ZN2sp5scene5Light12setDirectionERKNS_3dim8vector3dIfEE @1439
    _ZN2sp5scene5Light13setVolumetricEb @1440
    _ZN2sp5scene5Light14DEF_SLCA_INNERE @1441 DATA
    _ZN2sp5scene5Light14DEF_SLCA_OUTERE @1442 DATA
    _ZN2sp5scene5Light15setLightingTypeENS0_12ELightModelsE @1443
    _ZN2sp5scene5Light16setLightingColorERKNS_5video5colorES5_S5_ @1444
    _ZN2sp5scene5Light18setVolumetricRangeEfff @1445
    _ZN2sp5scene5Light19setVolumetricRadiusEf @1446
    _ZN2sp5scene5Light6renderEv @1447
    _ZN2sp5scene5LightC1ENS0_12ELightModelsE @1448
    _ZN2sp5scene5LightC1Ev @1449
    _ZN2sp5scene5LightC2ENS0_12ELightModelsE @1450
    _ZN2sp5scene5LightC2Ev @1451
    _ZN2sp5scene5LightD0Ev @1452
    _ZN2sp5scene5LightD1Ev @1453
    _ZN2sp5scene5LightD2Ev @1454
    _ZN2sp5scene6Camera13updateControlEv @1455
    _ZN2sp5scene6Camera14getPerspectiveERNS_3dim6rect2dIiEERfS6_S6_ @1456
    _ZN2sp5scene6Camera14setPerspectiveERKNS_3dim6rect2dIiEEfff @1457
    _ZN2sp5scene6Camera14updateViewmodeEv @1458
    _ZN2sp5scene6Camera17updatePerspectiveEv @1459
    _ZN2sp5scene6Camera17updateViewFrustumEv @1460
    _ZN2sp5scene6Camera21updateModelviewMatrixEv @1461
    _ZN2sp5scene6Camera6lookAtENS_3dim8vector3dIfEEb @1462
    _ZN2sp5scene6Camera8drawMenuEv @1463
    _ZN2sp5scene6CameraC1Ev @1464
    _ZN2sp5scene6CameraC2Ev @1465
    _ZN2sp5scene6CameraD0Ev @1466
    _ZN2sp5scene6CameraD1Ev @1467
    _ZN2sp5scene6CameraD2Ev @1468
    _ZN2sp5scene7Terrain12getNodeLevelEPKNS0_12QuadTreeNodeERKNS_3dim7point2dIfEE @1469
    _ZN2sp5scene7Terrain14createQuadTreeEPNS0_12QuadTreeNodeERiNS_3dim7point2dIiEE @1470
    _ZN2sp5scene7Terrain15changeHeightMapERKNS_5video17SHeightMapTextureERKNS_3dim6size2dIiEEi @1471
    _ZN2sp5scene7Terrain18createTreeNodeMeshEPNS0_12QuadTreeNodeEPNS1_13STreeNodeDataERKNS_3dim7point2dIiEE @1472
    _ZN2sp5scene7Terrain18deformTreeNodeMeshEPNS0_12QuadTreeNodeERKNS_3dim7point2dIfEE @1473
    _ZN2sp5scene7Terrain18renderTreeNodeMeshEPNS0_12QuadTreeNodeE @1474
    _ZN2sp5scene7Terrain18selectTreeNodeMeshEPNS0_12QuadTreeNodeE @1475
    _ZN2sp5scene7Terrain4initEv @1476
    _ZN2sp5scene7Terrain5clearEv @1477
    _ZN2sp5scene7Terrain6renderEv @1478
    _ZN2sp5scene7TerrainC1ERKNS_5video17SHeightMapTextureERKNS_3dim6size2dIiEEi @1479
    _ZN2sp5scene7TerrainC2ERKNS_5video17SHeightMapTextureERKNS_3dim6size2dIiEEi @1480
    _ZN2sp5scene7TerrainD0Ev @1481
    _ZN2sp5scene7TerrainD1Ev @1482
    _ZN2sp5scene7TerrainD2Ev @1483
    _ZN2sp5scene8TreeNode14removeChildrenEv @1484
    _ZN2sp5scene8TreeNode17EXT_BOUNDBOX_SIZEE @1485 DATA
    _ZN2sp5scene8TreeNode7getRootEv @1486
    _ZN2sp5scene8TreeNodeC1EPS1_NS0_14ETreeNodeTypesE @1487
    _ZN2sp5scene8TreeNodeC2EPS1_NS0_14ETreeNodeTypesE @1488
    _ZN2sp5scene8TreeNodeD0Ev @1489
    _ZN2sp5scene8TreeNodeD1Ev @1490
    _ZN2sp5scene8TreeNodeD2Ev @1491
    _ZN2sp5scene9Animation14updateSequenceEf @1492
    _ZN2sp5scene9Animation16updateSeekStatusERiRf @1493
    _ZN2sp5scene9Animation18updateNextSequenceEv @1494
    _ZN2sp5scene9Animation4initEv @1495
    _ZN2sp5scene9Animation4playENS0_12EAnimMethodsENS0_10EAnimModesEiib @1496
    _ZN2sp5scene9Animation4stopEv @1497
    _ZN2sp5scene9Animation5pauseEb @1498
    _ZN2sp5scene9Animation7setSeekEf @1499
    _ZN2sp5scene9Animation7setSeekEif @1500
    _ZN2sp5scene9AnimationC1ENS0_15EAnimationTypesE @1501
    _ZN2sp5scene9AnimationC2ENS0_15EAnimationTypesE @1502
    _ZN2sp5scene9AnimationD0Ev @1503
    _ZN2sp5scene9AnimationD1Ev @1504
    _ZN2sp5scene9AnimationD2Ev @1505
    _ZN2sp5scene9Billboard11MeshBuffer_E @1506 DATA
    _ZN2sp5scene9Billboard20updateTransformationEv @1507
    _ZN2sp5scene9Billboard4initEv @1508
    _ZN2sp5scene9Billboard6renderEv @1509
    _ZN2sp5scene9BillboardC1EPNS_5video7TextureE @1510
    _ZN2sp5scene9BillboardC2EPNS_5video7TextureE @1511
    _ZN2sp5scene9BillboardD0Ev @1512
    _ZN2sp5scene9BillboardD1Ev @1513
    _ZN2sp5scene9BillboardD2Ev @1514
    _ZN2sp5scene9Collision20addCollisionMaterialEPS1_NS0_15ECollisionTypesE @1515
    _ZN2sp5scene9Collision23removeCollisionMaterialEPS1_ @1516
    _ZN2sp5scene9CollisionC1Ev @1517
    _ZN2sp5scene9CollisionC2Ev @1518
    _ZN2sp5scene9CollisionD0Ev @1519
    _ZN2sp5scene9CollisionD1Ev @1520
    _ZN2sp5scene9CollisionD2Ev @1521
    _ZN2sp5scene9MeshSaverD0Ev @1522
    _ZN2sp5scene9MeshSaverD1Ev @1523
    _ZN2sp5scene9SceneNode10getContactERNS0_17SCollisionContactEPNS0_9CollisionE @1524
    _ZN2sp5scene9SceneNode11addChildrenERKSt4listIPS1_SaIS3_EE @1525
    _ZN2sp5scene9SceneNode11removeChildEPS1_ @1526
    _ZN2sp5scene9SceneNode11removeChildEv @1527
    _ZN2sp5scene9SceneNode11setPositionERKNS_3dim8vector3dIfEEb @1528
    _ZN2sp5scene9SceneNode11setRotationERKNS_3dim8vector3dIfEEb @1529
    _ZN2sp5scene9SceneNode12addAnimationENS0_15EAnimationTypesERKNS_2io6stringIcEE @1530
    _ZN2sp5scene9SceneNode12checkContactEPNS0_9CollisionE @1531
    _ZN2sp5scene9SceneNode14getNextContactERNS0_17SCollisionContactE @1532
    _ZN2sp5scene9SceneNode14removeChildrenERKSt4listIPS1_SaIS3_EE @1533
    _ZN2sp5scene9SceneNode14removeChildrenEv @1534
    _ZN2sp5scene9SceneNode14setBoundingBoxERKNS_3dim8aabbox3dIfEE @1535
    _ZN2sp5scene9SceneNode14setScaleMatrixERKNS_3dim7matrix4IfEE @1536
    _ZN2sp5scene9SceneNode14setScaleMatrixERKNS_3dim7matrix4IfEEb @1537
    _ZN2sp5scene9SceneNode15clearAnimationsEv @1538
    _ZN2sp5scene9SceneNode15removeAnimationEPNS0_9AnimationE @1539
    _ZN2sp5scene9SceneNode15setBoundingTypeENS0_16EBoundingVolumesE @1540
    _ZN2sp5scene9SceneNode17setBoundingSphereEf @1541
    _ZN2sp5scene9SceneNode17setPositionMatrixERKNS_3dim7matrix4IfEE @1542
    _ZN2sp5scene9SceneNode17setPositionMatrixERKNS_3dim7matrix4IfEEb @1543
    _ZN2sp5scene9SceneNode17setRotationMatrixERKNS_3dim7matrix4IfEE @1544
    _ZN2sp5scene9SceneNode17setRotationMatrixERKNS_3dim7matrix4IfEEb @1545
    _ZN2sp5scene9SceneNode18loadTransformationEv @1546
    _ZN2sp5scene9SceneNode20updateTransformationEv @1547
    _ZN2sp5scene9SceneNode21updateModelviewMatrixEv @1548
    _ZN2sp5scene9SceneNode4moveERKNS_3dim8vector3dIfEE @1549
    _ZN2sp5scene9SceneNode4turnERKNS_3dim8vector3dIfEE @1550
    _ZN2sp5scene9SceneNode6lookAtERKNS_3dim8vector3dIfEEb @1551
    _ZN2sp5scene9SceneNode8addChildEPS1_ @1552
    _ZN2sp5scene9SceneNode8setScaleERKNS_3dim8vector3dIfEEb @1553
    _ZN2sp5scene9SceneNode9setMatrixERKNS_3dim7matrix4IfEE @1554
    _ZN2sp5scene9SceneNode9setParentEPS1_b @1555
    _ZN2sp5scene9SceneNode9transformERKNS_3dim8vector3dIfEE @1556
    _ZN2sp5scene9SceneNode9translateERKNS_3dim8vector3dIfEE @1557
    _ZN2sp5scene9SceneNodeC1ENS0_10ENodeTypesE @1558
    _ZN2sp5scene9SceneNodeC2ENS0_10ENodeTypesE @1559
    _ZN2sp5scene9SceneNodeD0Ev @1560
    _ZN2sp5scene9SceneNodeD1Ev @1561
    _ZN2sp5scene9SceneNodeD2Ev @1562
    _ZN2sp5video10ImageSaverC1ERKNS_2io6stringIcEE @1563
    _ZN2sp5video10ImageSaverC2ERKNS_2io6stringIcEE @1564
    _ZN2sp5video10ImageSaverD0Ev @1565
    _ZN2sp5video10ImageSaverD1Ev @1566
    _ZN2sp5video10ImageSaverD2Ev @1567
    _ZN2sp5video10MeshBuffer10addTextureEPNS0_7TextureEh @1568
    _ZN2sp5video10MeshBuffer10addTextureERKNS0_19SMeshSurfaceTextureEh @1569
    _ZN2sp5video10MeshBuffer10loadBackupEv @1570
    _ZN2sp5video10MeshBuffer10saveBackupEv @1571
    _ZN2sp5video10MeshBuffer10setTextureEhPNS0_7TextureE @1572
    _ZN2sp5video10MeshBuffer11addTriangleEPKj @1573
    _ZN2sp5video10MeshBuffer11addTriangleEjjj @1574
    _ZN2sp5video10MeshBuffer11addTriangleEv @1575
    _ZN2sp5video10MeshBuffer11addVerticesEj @1576
    _ZN2sp5video10MeshBuffer11clearBackupEv @1577
    _ZN2sp5video10MeshBuffer11cutTriangleEjRKNS_3dim7plane3dIfEE @1578
    _ZN2sp5video10MeshBuffer11textureTurnEhf @1579
    _ZN2sp5video10MeshBuffer12addTrianglesEj @1580
    _ZN2sp5video10MeshBuffer12clearIndicesEv @1581
    _ZN2sp5video10MeshBuffer12removeVertexEj @1582
    _ZN2sp5video10MeshBuffer12setVertexFogEjf @1583
    _ZN2sp5video10MeshBuffer13addQuadrangleEPKj @1584
    _ZN2sp5video10MeshBuffer13addQuadrangleEjjjj @1585
    _ZN2sp5video10MeshBuffer13clearVerticesEv @1586
    _ZN2sp5video10MeshBuffer13flipTrianglesEv @1587
    _ZN2sp5video10MeshBuffer13meshTransformERKNS_3dim7matrix4IfEE @1588
    _ZN2sp5video10MeshBuffer13meshTransformERKNS_3dim8vector3dIfEE @1589
    _ZN2sp5video10MeshBuffer13meshTranslateERKNS_3dim8vector3dIfEE @1590
    _ZN2sp5video10MeshBuffer13removeTextureEh @1591
    _ZN2sp5video10MeshBuffer13setMappingGenEhNS0_16EMappingGenTypesE @1592
    _ZN2sp5video10MeshBuffer13setTextureEnvEhNS0_16ETextureEnvTypesE @1593
    _ZN2sp5video10MeshBuffer13updateNormalsENS0_13EShadingTypesE @1594
    _ZN2sp5video10MeshBuffer14setIndexFormatENS0_18ERendererDataTypesE @1595
    _ZN2sp5video10MeshBuffer14setVertexColorEjRKNS0_5colorE @1596
    _ZN2sp5video10MeshBuffer14setVertexCoordEjRKNS_3dim8vector3dIfEE @1597
    _ZN2sp5video10MeshBuffer15removePrimitiveEj @1598
    _ZN2sp5video10MeshBuffer15setVertexFormatEPNS0_12VertexFormatE @1599
    _ZN2sp5video10MeshBuffer15setVertexNormalEjRKNS_3dim8vector3dIfEE @1600
    _ZN2sp5video10MeshBuffer16checkIndexFormatERNS0_18ERendererDataTypesE @1601
    _ZN2sp5video10MeshBuffer16clearTextureListEv @1602
    _ZN2sp5video10MeshBuffer16createMeshBufferEv @1603
    _ZN2sp5video10MeshBuffer16deleteMeshBufferEv @1604
    _ZN2sp5video10MeshBuffer16getPrimitiveSizeENS0_17ERenderPrimitivesE @1605
    _ZN2sp5video10MeshBuffer16setPrimitiveTypeENS0_17ERenderPrimitivesE @1606
    _ZN2sp5video10MeshBuffer16setTextureMatrixEhRKNS_3dim7matrix4IfEE @1607
    _ZN2sp5video10MeshBuffer16setVertexTangentEjRKNS_3dim8vector3dIfEE @1608
    _ZN2sp5video10MeshBuffer16textureTransformEhRKNS_3dim8vector3dIfEE @1609
    _ZN2sp5video10MeshBuffer16textureTranslateEhRKNS_3dim8vector3dIfEE @1610
    _ZN2sp5video10MeshBuffer16updateMeshBufferEv @1611
    _ZN2sp5video10MeshBuffer17addPrimitiveIndexEj @1612
    _ZN2sp5video10MeshBuffer17createIndexBufferEv @1613
    _ZN2sp5video10MeshBuffer17deleteIndexBufferEv @1614
    _ZN2sp5video10MeshBuffer17setPrimitiveIndexEjj @1615
    _ZN2sp5video10MeshBuffer17setSurfaceTextureEhRKNS0_19SMeshSurfaceTextureE @1616
    _ZN2sp5video10MeshBuffer17setVertexBinormalEjRKNS_3dim8vector3dIfEE @1617
    _ZN2sp5video10MeshBuffer17setVertexTexCoordEjRKNS_3dim8vector3dIfEEh @1618
    _ZN2sp5video10MeshBuffer17updateIndexBufferEv @1619
    _ZN2sp5video10MeshBuffer17updateNormalsFlatEv @1620
    _ZN2sp5video10MeshBuffer18createVertexBufferEv @1621
    _ZN2sp5video10MeshBuffer18deleteVertexBufferEv @1622
    _ZN2sp5video10MeshBuffer18getVertexAttributeEjRKNS0_16SVertexAttributeEPvj @1623
    _ZN2sp5video10MeshBuffer18setTriangleIndicesEjRA3_Kj @1624
    _ZN2sp5video10MeshBuffer18setVertexAttributeEjRKNS0_16SVertexAttributeEPKvj @1625
    _ZN2sp5video10MeshBuffer18updateTangentSpaceEhh @1626
    _ZN2sp5video10MeshBuffer18updateVertexBufferEv @1627
    _ZN2sp5video10MeshBuffer19fillVertexAttributeEjRKNS0_16SVertexAttributeE @1628
    _ZN2sp5video10MeshBuffer19setMappingGenCoordsEhi @1629
    _ZN2sp5video10MeshBuffer20setTexturesReferenceEPS1_ @1630
    _ZN2sp5video10MeshBuffer20setTexturesReferenceERPSt6vectorINS0_19SMeshSurfaceTextureESaIS3_EE @1631
    _ZN2sp5video10MeshBuffer20updateNormalsGouraudEv @1632
    _ZN2sp5video10MeshBuffer22convertVertexAttributeERKNS_3dim15UniversalBufferEjRKNS0_16SVertexAttributeES8_b @1633
    _ZN2sp5video10MeshBuffer24updateIndexBufferElementEj @1634
    _ZN2sp5video10MeshBuffer25clipConcatenatedTrianglesEv @1635
    _ZN2sp5video10MeshBuffer25updateVertexBufferElementEj @1636
    _ZN2sp5video10MeshBuffer4initEv @1637
    _ZN2sp5video10MeshBuffer5paintERKNS0_5colorEb @1638
    _ZN2sp5video10MeshBuffer8meshFlipEbbb @1639
    _ZN2sp5video10MeshBuffer8meshFlipEv @1640
    _ZN2sp5video10MeshBuffer8meshTurnERKNS_3dim8vector3dIfEE @1641
    _ZN2sp5video10MeshBuffer9addVertexERKNS_3dim8vector3dIfEES6_RKNS0_5colorE @1642
    _ZN2sp5video10MeshBuffer9addVertexERKNS_3dim8vector3dIfEES6_RKSt6vectorIS4_SaIS4_EERKNS0_5colorEf @1643
    _ZN2sp5video10MeshBuffer9addVertexERKNS_3dim8vector3dIfEES6_S6_RKNS0_5colorEf @1644
    _ZN2sp5video10MeshBuffer9addVertexERKNS_5scene13SMeshVertex3DE @1645
    _ZN2sp5video10MeshBuffer9addVertexEv @1646
    _ZN2sp5video10MeshBufferC1EPNS0_12VertexFormatENS0_18ERendererDataTypesE @1647
    _ZN2sp5video10MeshBufferC1ERKS1_b @1648
    _ZN2sp5video10MeshBufferC2EPNS0_12VertexFormatENS0_18ERendererDataTypesE @1649
    _ZN2sp5video10MeshBufferC2ERKS1_b @1650
    _ZN2sp5video10MeshBufferD0Ev @1651
    _ZN2sp5video10MeshBufferD1Ev @1652
    _ZN2sp5video10MeshBufferD2Ev @1653
    _ZN2sp5video11ImageBuffer10copyBufferEPKv @1654
    _ZN2sp5video11ImageBuffer10fillBufferERKNS0_5colorE @1655
    _ZN2sp5video11ImageBuffer11clearBufferEv @1656
    _ZN2sp5video11ImageBuffer11setDataTypeENS0_18ERendererDataTypesE @1657
    _ZN2sp5video11ImageBuffer12createBufferEv @1658
    _ZN2sp5video11ImageBuffer13freeRawBufferERPv @1659
    _ZN2sp5video11ImageBuffer13getFormatSizeENS0_13EPixelFormatsE @1660
    _ZN2sp5video11ImageBuffer13setPixelColorERKNS_3dim7point2dIiEERKNS0_5colorE @1661
    _ZN2sp5video11ImageBuffer9setFormatENS0_13EPixelFormatsE @1662
    _ZN2sp5video11ImageBufferC1ENS0_13EPixelFormatsERKNS_3dim6size2dIiEEjNS0_18ERendererDataTypesE @1663
    _ZN2sp5video11ImageBufferC1EPKfNS0_13EPixelFormatsERKNS_3dim6size2dIiEEj @1664
    _ZN2sp5video11ImageBufferC1EPKhNS0_13EPixelFormatsERKNS_3dim6size2dIiEEj @1665
    _ZN2sp5video11ImageBufferC1EPS1_ @1666
    _ZN2sp5video11ImageBufferC1Ev @1667
    _ZN2sp5video11ImageBufferC2ENS0_13EPixelFormatsERKNS_3dim6size2dIiEEjNS0_18ERendererDataTypesE @1668
    _ZN2sp5video11ImageBufferC2EPKfNS0_13EPixelFormatsERKNS_3dim6size2dIiEEj @1669
    _ZN2sp5video11ImageBufferC2EPKhNS0_13EPixelFormatsERKNS_3dim6size2dIiEEj @1670
    _ZN2sp5video11ImageBufferC2EPS1_ @1671
    _ZN2sp5video11ImageBufferC2Ev @1672
    _ZN2sp5video11ImageBufferD1Ev @1673
    _ZN2sp5video11ImageBufferD2Ev @1674
    _ZN2sp5video11ImageLoaderC1ERKNS_2io6stringIcEE @1675
    _ZN2sp5video11ImageLoaderC2ERKNS_2io6stringIcEE @1676
    _ZN2sp5video11ImageLoaderD0Ev @1677
    _ZN2sp5video11ImageLoaderD1Ev @1678
    _ZN2sp5video11ImageLoaderD2Ev @1679
    _ZN2sp5video11IndexFormat11setDataTypeENS0_18ERendererDataTypesE @1680
    _ZN2sp5video11IndexFormatC1Ev @1681
    _ZN2sp5video11IndexFormatC2Ev @1682
    _ZN2sp5video11IndexFormatD1Ev @1683
    _ZN2sp5video11IndexFormatD2Ev @1684
    _ZN2sp5video11ShaderTable10printErrorERKNS_2io6stringIcEE @1685
    _ZN2sp5video11ShaderTable12printWarningERKNS_2io6stringIcEE @1686
    _ZN2sp5video11ShaderTableC1Ev @1687
    _ZN2sp5video11ShaderTableC2Ev @1688
    _ZN2sp5video11ShaderTableD0Ev @1689
    _ZN2sp5video11ShaderTableD1Ev @1690
    _ZN2sp5video11ShaderTableD2Ev @1691
    _ZN2sp5video12OpenGLShader11compileGLSLERKSt6vectorINS_2io6stringIcEESaIS5_EE @1692
    _ZN2sp5video12OpenGLShader11setConstantEPKfii @1693
    _ZN2sp5video12OpenGLShader11setConstantERKNS_2io6stringIcEEPKfi @1694
    _ZN2sp5video12OpenGLShader11setConstantERKNS_2io6stringIcEEPKii @1695
    _ZN2sp5video12OpenGLShader11setConstantERKNS_2io6stringIcEERKNS0_5colorE @1696
    _ZN2sp5video12OpenGLShader11setConstantERKNS_2io6stringIcEERKNS_3dim7matrix4IfEE @1697
    _ZN2sp5video12OpenGLShader11setConstantERKNS_2io6stringIcEERKNS_3dim8vector3dIfEE @1698
    _ZN2sp5video12OpenGLShader11setConstantERKNS_2io6stringIcEERKNS_3dim8vector4dIfEE @1699
    _ZN2sp5video12OpenGLShader11setConstantERKNS_2io6stringIcEEf @1700
    _ZN2sp5video12OpenGLShader11setConstantERKNS_2io6stringIcEEi @1701
    _ZN2sp5video12OpenGLShader11setConstantEiNS0_14EConstantTypesEPKfi @1702
    _ZN2sp5video12OpenGLShader11setConstantEiNS0_14EConstantTypesERKNS0_5colorE @1703
    _ZN2sp5video12OpenGLShader11setConstantEiNS0_14EConstantTypesERKNS_3dim7matrix4IfEE @1704
    _ZN2sp5video12OpenGLShader11setConstantEiNS0_14EConstantTypesERKNS_3dim8vector3dIfEE @1705
    _ZN2sp5video12OpenGLShader11setConstantEiNS0_14EConstantTypesEf @1706
    _ZN2sp5video12OpenGLShader14compileProgramERKSt6vectorINS_2io6stringIcEESaIS5_EE @1707
    _ZN2sp5video12OpenGLShader17addShaderConstantEPKcjj @1708
    _ZN2sp5video12OpenGLShader20checkCompilingErrorsERKNS_2io6stringIcEE @1709
    _ZN2sp5video12OpenGLShader20checkCompilingErrorsEv @1710
    _ZN2sp5video12OpenGLShader7compileERKSt6vectorINS_2io6stringIcEESaIS5_EERKS5_ @1711
    _ZN2sp5video12OpenGLShaderC1EPNS0_11ShaderTableENS0_12EShaderTypesENS0_15EShaderVersionsE @1712
    _ZN2sp5video12OpenGLShaderC2EPNS0_11ShaderTableENS0_12EShaderTypesENS0_15EShaderVersionsE @1713
    _ZN2sp5video12OpenGLShaderD0Ev @1714
    _ZN2sp5video12OpenGLShaderD1Ev @1715
    _ZN2sp5video12OpenGLShaderD2Ev @1716
    _ZN2sp5video12RenderSystem10deleteFontEPNS0_4FontE @1717
    _ZN2sp5video12RenderSystem10draw2DLineERKNS_3dim7point2dIiEES6_RKNS0_5colorE @1718
    _ZN2sp5video12RenderSystem10draw2DLineERKNS_3dim7point2dIiEES6_RKNS0_5colorES9_ @1719
    _ZN2sp5video12RenderSystem10draw2DTextEPNS0_4FontERKNS_3dim7point2dIiEERKNS_2io6stringIcEERKNS0_5colorE @1720
    _ZN2sp5video12RenderSystem10draw3DLineERKNS_3dim8vector3dIfEES6_RKNS0_5colorE @1721
    _ZN2sp5video12RenderSystem10draw3DLineERKNS_3dim8vector3dIfEES6_RKNS0_5colorES9_ @1722
    _ZN2sp5video12RenderSystem10draw3DTextEPNS0_4FontERKNS_3dim7matrix4IfEERKNS_2io6stringIcEERKNS0_5colorE @1723
    _ZN2sp5video12RenderSystem10getTextureERKNS_2io6stringIcEE @1724
    _ZN2sp5video12RenderSystem10loadShaderEPNS0_11ShaderTableENS0_12EShaderTypesENS0_15EShaderVersionsERKNS_2io6stringIcEESA_ @1725
    _ZN2sp5video12RenderSystem10pushMatrixEv @1726
    _ZN2sp5video12RenderSystem11deleteMovieERPNS0_5MovieE @1727
    _ZN2sp5video12RenderSystem11draw2DImageEPNS0_7TextureENS_3dim6rect2dIiEERKNS5_IfEEfRKNS4_7point2dIfEERKNS0_5colorESG_SG_SG_ @1728
    _ZN2sp5video12RenderSystem11draw2DImageEPNS0_7TextureERKNS_3dim6rect2dIiEERKNS5_IfEERKNS0_5colorE @1729
    _ZN2sp5video12RenderSystem11draw2DImageEPNS0_7TextureERKNS_3dim7point2dIiEERKNS0_5colorE @1730
    _ZN2sp5video12RenderSystem11draw2DImageEPNS0_7TextureERKNS_3dim7point2dIiEES8_S8_S8_RKNS5_IfEESB_SB_SB_RKNS0_5colorESE_SE_SE_ @1731
    _ZN2sp5video12RenderSystem11draw2DImageEPNS0_7TextureERKNS_3dim7point2dIiEEffRKNS0_5colorE @1732
    _ZN2sp5video12RenderSystem11draw2DPointERKNS_3dim7point2dIiEERKNS0_5colorE @1733
    _ZN2sp5video12RenderSystem11draw3DPointERKNS_3dim8vector3dIfEERKNS0_5colorE @1734
    _ZN2sp5video12RenderSystem11getFogRangeERfS2_S2_RNS0_9EFogModesE @1735
    _ZN2sp5video12RenderSystem11loadTextureERKNS_2io6stringIcEE @1736
    _ZN2sp5video12RenderSystem11popViewportEv @1737
    _ZN2sp5video12RenderSystem11saveTextureEPKNS0_7TextureENS_2io6stringIcEENS0_17EImageFileFormatsE @1738
    _ZN2sp5video12RenderSystem11setBlendingENS0_14EBlendingTypesES2_ @1739
    _ZN2sp5video12RenderSystem11setClippingEbRKNS_3dim7point2dIiEERKNS2_6size2dIiEE @1740
    _ZN2sp5video12RenderSystem11setFogColorERKNS0_5colorE @1741
    _ZN2sp5video12RenderSystem11setFogRangeEfffNS0_9EFogModesE @1742
    _ZN2sp5video12RenderSystem11setLineSizeEi @1743
    _ZN2sp5video12RenderSystem11setViewportERKNS_3dim7point2dIiEERKNS2_6size2dIiEE @1744
    _ZN2sp5video12RenderSystem11updateLightEjNS_5scene12ELightModelsEbRKNS_3dim8vector3dIfEEfffff @1745
    _ZN2sp5video12RenderSystem12createShaderEPNS0_11ShaderTableENS0_12EShaderTypesENS0_15EShaderVersionsERKSt6vectorINS_2io6stringIcEESaIS9_EERKS9_ @1746
    _ZN2sp5video12RenderSystem12deleteShaderEPNS0_6ShaderE @1747
    _ZN2sp5video12RenderSystem12draw2DCircleERKNS_3dim7point2dIiEEiRKNS0_5colorE @1748
    _ZN2sp5video12RenderSystem12endDrawing2DEv @1749
    _ZN2sp5video12RenderSystem12endDrawing3DEv @1750
    _ZN2sp5video12RenderSystem12printWarningEv @1751
    _ZN2sp5video12RenderSystem12pushViewportEv @1752
    _ZN2sp5video12RenderSystem12setAntiAliasEb @1753
    _ZN2sp5video12RenderSystem12setClipPlaneEjRKNS_3dim7plane3dIfEEb @1754
    _ZN2sp5video12RenderSystem12setColorMaskEbbbb @1755
    _ZN2sp5video12RenderSystem12setDepthMaskEb @1756
    _ZN2sp5video12RenderSystem12setFillColorERKNS0_5colorE @1757
    _ZN2sp5video12RenderSystem12setFrontFaceEb @1758
    _ZN2sp5video12RenderSystem12setPointSizeEi @1759
    _ZN2sp5video12RenderSystem12setShadeModeENS0_15EShadeModeTypesE @1760
    _ZN2sp5video12RenderSystem13createTextureERKNS_3dim6size2dIiEENS0_13EPixelFormatsERKNS_2io6stringIcEE @1761
    _ZN2sp5video12RenderSystem13deleteTextureERPNS0_7TextureE @1762
    _ZN2sp5video12RenderSystem13draw2DEllipseERKNS_3dim7point2dIiEERKNS2_6size2dIiEERKNS0_5colorE @1763
    _ZN2sp5video12RenderSystem13draw2DPolygonENS0_17ERenderPrimitivesEPKNS_5scene18SPrimitiveVertex2DEj @1764
    _ZN2sp5video12RenderSystem13draw3DEllipseERKNS_3dim8vector3dIfEES6_RKNS2_6size2dIfEERKNS0_5colorE @1765
    _ZN2sp5video12RenderSystem13makeNormalMapEPNS0_7TextureEf @1766
    _ZN2sp5video12RenderSystem13setClearColorERKNS0_5colorE @1767
    _ZN2sp5video12RenderSystem13setLightColorEjRKNS0_5colorES4_S4_ @1768
    _ZN2sp5video12RenderSystem13setViewMatrixERKNS_3dim7matrix4IfEE @1769
    _ZN2sp5video12RenderSystem13unbindShadersEv @1770
    _ZN2sp5video12RenderSystem13updateCubeMapEPNS0_7TextureERKNS_3dim8vector3dIfEE @1771
    _ZN2sp5video12RenderSystem14beginDrawing2DEv @1772
    _ZN2sp5video12RenderSystem14beginDrawing3DEv @1773
    _ZN2sp5video12RenderSystem14createCgShaderEPNS0_11ShaderTableENS0_12EShaderTypesENS0_15EShaderVersionsERKSt6vectorINS_2io6stringIcEESaIS9_EERKS9_ @1774
    _ZN2sp5video12RenderSystem14draw3DTriangleEPNS0_7TextureERKNS_3dim10triangle3dIfNS4_8vector3dIfEEEERKNS0_5colorE @1775
    _ZN2sp5video12RenderSystem14drawMeshBufferEPKNS0_10MeshBufferE @1776
    _ZN2sp5video12RenderSystem14enableBlendingEv @1777
    _ZN2sp5video12RenderSystem14setColorMatrixERKNS_3dim7matrix4IfEE @1778
    _ZN2sp5video12RenderSystem14setLightStatusEjb @1779
    _ZN2sp5video12RenderSystem14setWorldMatrixERKNS_3dim7matrix4IfEE @1780
    _ZN2sp5video12RenderSystem15disableBlendingEv @1781
    _ZN2sp5video12RenderSystem15draw2DRectangleERKNS_3dim6rect2dIiEERKNS0_5colorES9_S9_S9_b @1782
    _ZN2sp5video12RenderSystem15draw2DRectangleERKNS_3dim6rect2dIiEERKNS0_5colorEb @1783
    _ZN2sp5video12RenderSystem15loadShaderTableERKNS_2io6stringIcEES6_NS0_15EShaderVersionsES7_S6_S6_ @1784
    _ZN2sp5video12RenderSystem15loadTextureListERKNS_2io6stringIcEE @1785
    _ZN2sp5video12RenderSystem15setRenderTargetEPNS0_7TextureE @1786
    _ZN2sp5video12RenderSystem16clearTextureListEv @1787
    _ZN2sp5video12RenderSystem16createScreenShotEPNS0_7TextureERKNS_3dim7point2dIiEE @1788
    _ZN2sp5video12RenderSystem16createScreenShotERKNS_3dim7point2dIiEENS2_6size2dIiEE @1789
    _ZN2sp5video12RenderSystem16disableTexturingEv @1790
    _ZN2sp5video12RenderSystem16runComputeShaderEPNS0_6ShaderEPNS0_15ComputeShaderIOERKNS_3dim8vector3dIiEE @1791
    _ZN2sp5video12RenderSystem16setClippingRangeEff @1792
    _ZN2sp5video12RenderSystem16setTextureMatrixERKNS_3dim7matrix4IfEEh @1793
    _ZN2sp5video12RenderSystem16setupShaderTableEPKNS_5scene12MaterialNodeEPNS0_11ShaderTableE @1794
    _ZN2sp5video12RenderSystem17createIndexBufferERPv @1795
    _ZN2sp5video12RenderSystem17createShaderTableEPNS0_12VertexFormatE @1796
    _ZN2sp5video12RenderSystem17createTextureFontEPNS0_7TextureERKSt6vectorINS_3dim6rect2dIiEESaIS7_EEi @1797
    _ZN2sp5video12RenderSystem17deleteIndexBufferERPv @1798
    _ZN2sp5video12RenderSystem17deleteShaderTableEPNS0_11ShaderTableE @1799
    _ZN2sp5video12RenderSystem17drawPrimitiveListENS0_17ERenderPrimitivesEPKNS_5scene13SMeshVertex3DEjPKvjPSt6vectorINS0_19SMeshSurfaceTextureESaISA_EE @1800
    _ZN2sp5video12RenderSystem17drawStencilShadowERKNS0_5colorE @1801
    _ZN2sp5video12RenderSystem17getVendorNameByIDEj @1802
    _ZN2sp5video12RenderSystem17reloadTextureListEv @1803
    _ZN2sp5video12RenderSystem17updateIndexBufferEPvRKNS_3dim15UniversalBufferEPKNS0_11IndexFormatENS0_16EMeshBufferUsageE @1804
    _ZN2sp5video12RenderSystem18clearStencilBufferEv @1805
    _ZN2sp5video12RenderSystem18createVertexBufferERPv @1806
    _ZN2sp5video12RenderSystem18deleteVertexBufferERPv @1807
    _ZN2sp5video12RenderSystem18deleteVertexFormatEPNS0_12VertexFormatE @1808
    _ZN2sp5video12RenderSystem18draw2DPolygonImageENS0_17ERenderPrimitivesEPNS0_7TextureEPKNS_5scene18SPrimitiveVertex2DEj @1809
    _ZN2sp5video12RenderSystem18setDrawingMatrix2DEv @1810
    _ZN2sp5video12RenderSystem18setDrawingMatrix3DEv @1811
    _ZN2sp5video12RenderSystem18setTextureGenFlagsENS0_16ETextureGenFlagsEi @1812
    _ZN2sp5video12RenderSystem18updateVertexBufferEPvRKNS_3dim15UniversalBufferEPKNS0_12VertexFormatENS0_16EMeshBufferUsageE @1813
    _ZN2sp5video12RenderSystem19createCgShaderTableEPNS0_12VertexFormatE @1814
    _ZN2sp5video12RenderSystem19setProjectionMatrixERKNS_3dim7matrix4IfEE @1815
    _ZN2sp5video12RenderSystem19updateWireframeModeERiS2_ @1816
    _ZN2sp5video12RenderSystem20matrixWorldViewResetEv @1817
    _ZN2sp5video12RenderSystem20updateMaterialStatesEPNS0_14MaterialStatesEb @1818
    _ZN2sp5video12RenderSystem21addDynamicLightSourceEjNS_5scene12ELightModelsERNS0_5colorES5_S5_fff @1819
    _ZN2sp5video12RenderSystem21createComputeShaderIOEv @1820
    _ZN2sp5video12RenderSystem21deleteComputeShaderIOERPNS0_15ComputeShaderIOE @1821
    _ZN2sp5video12RenderSystem21disable3DRenderStatesEv @1822
    _ZN2sp5video12RenderSystem22updateCubeMapDirectionEPNS_5scene6CameraENS_3dim7matrix4IfEENS0_18ECubeMapDirectionsEPNS0_7TextureE @1823
    _ZN2sp5video12RenderSystem23drawStencilShadowVolumeEPKNS_3dim8vector3dIfEEibb @1824
    _ZN2sp5video12RenderSystem23setDefaultAlphaBlendingEv @1825
    _ZN2sp5video12RenderSystem23updateVertexInputLayoutEPNS0_12VertexFormatEb @1826
    _ZN2sp5video12RenderSystem24updateIndexBufferElementEPvRKNS_3dim15UniversalBufferEj @1827
    _ZN2sp5video12RenderSystem25disableTriangleListStatesEv @1828
    _ZN2sp5video12RenderSystem25updateVertexBufferElementEPvRKNS_3dim15UniversalBufferEj @1829
    _ZN2sp5video12RenderSystem26createDefaultVertexFormatsEv @1830
    _ZN2sp5video12RenderSystem26createEmptyShaderWithErrorERKNS_2io6stringIcEEPNS0_11ShaderTableENS0_12EShaderTypesENS0_15EShaderVersionsE @1831
    _ZN2sp5video12RenderSystem6setFogENS0_9EFogTypesE @1832
    _ZN2sp5video12RenderSystem8loadFontEPNS0_7TextureE @1833
    _ZN2sp5video12RenderSystem8loadFontERKNS_2io6stringIcEENS_3dim6size2dIiEEi @1834
    _ZN2sp5video12RenderSystem8loadFontERKNS_2io6stringIcEEii @1835
    _ZN2sp5video12RenderSystem8setVsyncEb @1836
    _ZN2sp5video12RenderSystem9draw3DBoxERKNS_3dim8aabbox3dIfEERKNS2_7matrix4IfEERKNS0_5colorE @1837
    _ZN2sp5video12RenderSystem9loadMovieERKNS_2io6stringIcEEi @1838
    _ZN2sp5video12RenderSystem9popMatrixEv @1839
    _ZN2sp5video12RenderSystemC1ENS0_14ERenderSystemsE @1840
    _ZN2sp5video12RenderSystemC2ENS0_14ERenderSystemsE @1841
    _ZN2sp5video12RenderSystemD0Ev @1842
    _ZN2sp5video12RenderSystemD1Ev @1843
    _ZN2sp5video12RenderSystemD2Ev @1844
    _ZN2sp5video12VertexFormat15constructFormatEv @1845
    _ZN2sp5video12VertexFormat15getDataTypeSizeENS0_18ERendererDataTypesE @1846
    _ZN2sp5video12VertexFormat18constructComponentENS0_18EVertexFormatFlagsERNS0_16SVertexAttributeERiii @1847
    _ZN2sp5video12VertexFormatC1Ev @1848
    _ZN2sp5video12VertexFormatC2Ev @1849
    _ZN2sp5video12VertexFormatD0Ev @1850
    _ZN2sp5video12VertexFormatD1Ev @1851
    _ZN2sp5video12VertexFormatD2Ev @1852
    _ZN2sp5video13CgShaderTable4bindEPKNS_5scene12MaterialNodeE @1853
    _ZN2sp5video13CgShaderTable4linkEv @1854
    _ZN2sp5video13CgShaderTable6unbindEv @1855
    _ZN2sp5video13CgShaderTableC1EPNS0_12VertexFormatE @1856
    _ZN2sp5video13CgShaderTableC2EPNS0_12VertexFormatE @1857
    _ZN2sp5video13CgShaderTableD0Ev @1858
    _ZN2sp5video13CgShaderTableD1Ev @1859
    _ZN2sp5video13CgShaderTableD2Ev @1860
    _ZN2sp5video13GLTextureBase11setWrapModeENS0_17ETextureWrapModesE @1861
    _ZN2sp5video13GLTextureBase11setWrapModeENS0_17ETextureWrapModesES2_S2_ @1862
    _ZN2sp5video13GLTextureBase12setMagFilterENS0_15ETextureFiltersE @1863
    _ZN2sp5video13GLTextureBase12setMinFilterENS0_15ETextureFiltersE @1864
    _ZN2sp5video13GLTextureBase14generateMipMapEv @1865
    _ZN2sp5video13GLTextureBase15createHWTextureEv @1866
    _ZN2sp5video13GLTextureBase15deleteHWTextureEv @1867
    _ZN2sp5video13GLTextureBase15setMipMapFilterENS0_21ETextureMipMapFiltersE @1868
    _ZN2sp5video13GLTextureBase18updateTextureImageEv @1869
    _ZN2sp5video13GLTextureBase22setupTextureAttributesEv @1870
    _ZN2sp5video13GLTextureBase25updateTextureImageMipmapsENS_3dim8vector3dIiEEijj @1871
    _ZN2sp5video13GLTextureBase9setFilterENS0_15ETextureFiltersE @1872
    _ZN2sp5video13GLTextureBase9setFilterENS0_15ETextureFiltersES2_ @1873
    _ZN2sp5video13GLTextureBaseC1ERKNS0_21STextureCreationFlagsE @1874
    _ZN2sp5video13GLTextureBaseC1Ev @1875
    _ZN2sp5video13GLTextureBaseC2ERKNS0_21STextureCreationFlagsE @1876
    _ZN2sp5video13GLTextureBaseC2Ev @1877
    _ZN2sp5video13GLTextureBaseD0Ev @1878
    _ZN2sp5video13GLTextureBaseD1Ev @1879
    _ZN2sp5video13GLTextureBaseD2Ev @1880
    _ZN2sp5video13ImageSaverBMP13saveImageDataEPNS0_10SImageDataE @1881
    _ZN2sp5video13ImageSaverBMPC1ERKNS_2io6stringIcEE @1882
    _ZN2sp5video13ImageSaverBMPC2ERKNS_2io6stringIcEE @1883
    _ZN2sp5video13ImageSaverBMPD0Ev @1884
    _ZN2sp5video13ImageSaverBMPD1Ev @1885
    _ZN2sp5video13ImageSaverBMPD2Ev @1886
    _ZN2sp5video13OpenGLTexture12updateFormatEv @1887
    _ZN2sp5video13OpenGLTexture14setCubeMapFaceENS0_18ECubeMapDirectionsE @1888
    _ZN2sp5video13OpenGLTexture16shareImageBufferEv @1889
    _ZN2sp5video13OpenGLTexture17setColorIntensityEfff @1890
    _ZN2sp5video13OpenGLTexture17updateImageBufferEv @1891
    _ZN2sp5video13OpenGLTexture19setupTextureFormatsENS0_13EPixelFormatsENS0_17EHWTextureFormatsERjS4_ @1892
    _ZN2sp5video13OpenGLTexture24updateMultiRenderTargetsEv @1893
    _ZN2sp5video13OpenGLTexture24updateTextureImageNormalENS_3dim8vector3dIiEEijjPKhi @1894
    _ZN2sp5video13OpenGLTexture28updateFramebufferMultisampleEv @1895
    _ZN2sp5video13OpenGLTextureC1ERKNS0_21STextureCreationFlagsE @1896
    _ZN2sp5video13OpenGLTextureC1Ev @1897
    _ZN2sp5video13OpenGLTextureC2ERKNS0_21STextureCreationFlagsE @1898
    _ZN2sp5video13OpenGLTextureC2Ev @1899
    _ZN2sp5video13OpenGLTextureD0Ev @1900
    _ZN2sp5video13OpenGLTextureD1Ev @1901
    _ZN2sp5video13OpenGLTextureD2Ev @1902
    _ZN2sp5video13RenderContext11resetConfigEv @1903
    _ZN2sp5video13RenderContextC1Ev @1904
    _ZN2sp5video13RenderContextC2Ev @1905
    _ZN2sp5video13RenderContextD0Ev @1906
    _ZN2sp5video13RenderContextD1Ev @1907
    _ZN2sp5video13RenderContextD2Ev @1908
    _ZN2sp5video14GLBasePipeline11copyTextureEPKNS0_7TextureE @1909
    _ZN2sp5video14GLBasePipeline11loadTextureEPNS0_11ImageLoaderE @1910
    _ZN2sp5video14GLBasePipeline11popViewportEv @1911
    _ZN2sp5video14GLBasePipeline11setBlendingENS0_14EBlendingTypesES2_ @1912
    _ZN2sp5video14GLBasePipeline11setClippingEbRKNS_3dim7point2dIiEERKNS2_6size2dIiEE @1913
    _ZN2sp5video14GLBasePipeline11setLineSizeEi @1914
    _ZN2sp5video14GLBasePipeline11setViewportERKNS_3dim7point2dIiEERKNS2_6size2dIiEE @1915
    _ZN2sp5video14GLBasePipeline12clearBuffersEi @1916
    _ZN2sp5video14GLBasePipeline12pushViewportEv @1917
    _ZN2sp5video14GLBasePipeline12setColorMaskEbbbb @1918
    _ZN2sp5video14GLBasePipeline12setDepthMaskEb @1919
    _ZN2sp5video14GLBasePipeline12setFrontFaceEb @1920
    _ZN2sp5video14GLBasePipeline13createTextureERKNS_3dim6size2dIiEENS0_13EPixelFormatsEPKhRKNS_2io6stringIcEE @1921
    _ZN2sp5video14GLBasePipeline13setClearColorERKNS0_5colorE @1922
    _ZN2sp5video14GLBasePipeline14enableBlendingEv @1923
    _ZN2sp5video14GLBasePipeline14setWorldMatrixERKNS_3dim7matrix4IfEE @1924
    _ZN2sp5video14GLBasePipeline15disableBlendingEv @1925
    _ZN2sp5video14GLBasePipeline15setInvertScreenEb @1926
    _ZN2sp5video14GLBasePipeline16getGlRenderStateEj @1927
    _ZN2sp5video14GLBasePipeline16setGlRenderStateEjb @1928
    _ZN2sp5video14GLBasePipeline17createIndexBufferERPv @1929
    _ZN2sp5video14GLBasePipeline17createTextureFontEPNS0_7TextureERKSt6vectorINS_3dim6rect2dIiEESaIS7_EEi @1930
    _ZN2sp5video14GLBasePipeline17deleteIndexBufferERPv @1931
    _ZN2sp5video14GLBasePipeline17getGlTexDimensionENS0_18ETextureDimensionsE @1932
    _ZN2sp5video14GLBasePipeline17updateIndexBufferEPvRKNS_3dim15UniversalBufferEPKNS0_11IndexFormatENS0_16EMeshBufferUsageE @1933
    _ZN2sp5video14GLBasePipeline18createVertexBufferERPv @1934
    _ZN2sp5video14GLBasePipeline18deleteVertexBufferERPv @1935
    _ZN2sp5video14GLBasePipeline18updateVertexBufferEPvRKNS_3dim15UniversalBufferEPKNS0_12VertexFormatENS0_16EMeshBufferUsageE @1936
    _ZN2sp5video14GLBasePipeline23setDefaultAlphaBlendingEv @1937
    _ZN2sp5video14GLBasePipeline24updateIndexBufferElementEPvRKNS_3dim15UniversalBufferEj @1938
    _ZN2sp5video14GLBasePipeline25updateVertexBufferElementEPvRKNS_3dim15UniversalBufferEj @1939
    _ZN2sp5video14GLBasePipelineC1Ev @1940
    _ZN2sp5video14GLBasePipelineC2Ev @1941
    _ZN2sp5video14GLBasePipelineD0Ev @1942
    _ZN2sp5video14GLBasePipelineD1Ev @1943
    _ZN2sp5video14GLBasePipelineD2Ev @1944
    _ZN2sp5video14ImageConverter10halveImageERPhiii @1945
    _ZN2sp5video14ImageConverter10scaleImageERPhiiiii @1946
    _ZN2sp5video14ImageConverter13flipImageHorzEPhiii @1947
    _ZN2sp5video14ImageConverter13flipImageVertEPhiii @1948
    _ZN2sp5video14ImageConverter14checkImageSizeERNS_3dim6size2dIiEE @1949
    _ZN2sp5video14ImageConverter15changeImageDataERPhiiiiii @1950
    _ZN2sp5video14ImageConverter15flipImageColorsEPhiii @1951
    _ZN2sp5video14ImageConverter18convertImageFormatERPhiiii @1952
    _ZN2sp5video14ImageConverter20getMipmapLevelsCountEii @1953
    _ZN2sp5video14ImageConverter9blurImageERPhiii @1954
    _ZN2sp5video14ImageConverter9turnImageEPhiiiNS0_17EImageTurnDegreesE @1955
    _ZN2sp5video14ImageLoaderBMP13loadImageDataEv @1956
    _ZN2sp5video14ImageLoaderBMP20setImagePalettePixelEPNS0_10SImageDataEPKjjj @1957
    _ZN2sp5video14ImageLoaderBMPC1ERKNS_2io6stringIcEE @1958
    _ZN2sp5video14ImageLoaderBMPC2ERKNS_2io6stringIcEE @1959
    _ZN2sp5video14ImageLoaderBMPD0Ev @1960
    _ZN2sp5video14ImageLoaderBMPD1Ev @1961
    _ZN2sp5video14ImageLoaderBMPD2Ev @1962
    _ZN2sp5video14ImageLoaderDDS10readHeaderEv @1963
    _ZN2sp5video14ImageLoaderDDS13loadImageDataEv @1964
    _ZN2sp5video14ImageLoaderDDS14readCompressedEv @1965
    _ZN2sp5video14ImageLoaderDDS16readUncompressedEv @1966
    _ZN2sp5video14ImageLoaderDDS16updateFourCCTypeEv @1967
    _ZN2sp5video14ImageLoaderDDS8readBodyEv @1968
    _ZN2sp5video14ImageLoaderDDSC1ERKNS_2io6stringIcEE @1969
    _ZN2sp5video14ImageLoaderDDSC2ERKNS_2io6stringIcEE @1970
    _ZN2sp5video14ImageLoaderDDSD0Ev @1971
    _ZN2sp5video14ImageLoaderDDSD1Ev @1972
    _ZN2sp5video14ImageLoaderDDSD2Ev @1973
    _ZN2sp5video14ImageLoaderJPG13checkForErrorEv @1974
    _ZN2sp5video14ImageLoaderJPG13decompressJPGEP22jpeg_decompress_structPNS0_10SImageDataE @1975
    _ZN2sp5video14ImageLoaderJPG13loadImageDataEv @1976
    _ZN2sp5video14ImageLoaderJPGC1ERKNS_2io6stringIcEE @1977
    _ZN2sp5video14ImageLoaderJPGC2ERKNS_2io6stringIcEE @1978
    _ZN2sp5video14ImageLoaderJPGD0Ev @1979
    _ZN2sp5video14ImageLoaderJPGD1Ev @1980
    _ZN2sp5video14ImageLoaderJPGD2Ev @1981
    _ZN2sp5video14ImageLoaderPCX11readPCX1bitEPNS1_10SHeaderPCXEPNS0_10SImageDataE @1982
    _ZN2sp5video14ImageLoaderPCX11readPCX4bitEPNS1_10SHeaderPCXEPNS0_10SImageDataE @1983
    _ZN2sp5video14ImageLoaderPCX11readPCX8bitEPNS1_10SHeaderPCXEPNS0_10SImageDataE @1984
    _ZN2sp5video14ImageLoaderPCX12readPCX24bitEPNS1_10SHeaderPCXEPNS0_10SImageDataE @1985
    _ZN2sp5video14ImageLoaderPCX13loadImageDataEv @1986
    _ZN2sp5video14ImageLoaderPCXC1ERKNS_2io6stringIcEE @1987
    _ZN2sp5video14ImageLoaderPCXC2ERKNS_2io6stringIcEE @1988
    _ZN2sp5video14ImageLoaderPCXD0Ev @1989
    _ZN2sp5video14ImageLoaderPCXD1Ev @1990
    _ZN2sp5video14ImageLoaderPCXD2Ev @1991
    _ZN2sp5video14ImageLoaderPNG10getPNGInfoEiPNS0_10SImageDataE @1992
    _ZN2sp5video14ImageLoaderPNG13loadImageDataEv @1993
    _ZN2sp5video14ImageLoaderPNGC1ERKNS_2io6stringIcEE @1994
    _ZN2sp5video14ImageLoaderPNGC2ERKNS_2io6stringIcEE @1995
    _ZN2sp5video14ImageLoaderPNGD0Ev @1996
    _ZN2sp5video14ImageLoaderPNGD1Ev @1997
    _ZN2sp5video14ImageLoaderPNGD2Ev @1998
    _ZN2sp5video14ImageLoaderTGA13loadImageDataEv @1999
    _ZN2sp5video14ImageLoaderTGA17loadCompressedTGAEPNS0_10SImageDataE @2000
    _ZN2sp5video14ImageLoaderTGA19loadUncompressedTGAEPNS0_10SImageDataE @2001
    _ZN2sp5video14ImageLoaderTGAC1ERKNS_2io6stringIcEE @2002
    _ZN2sp5video14ImageLoaderTGAC2ERKNS_2io6stringIcEE @2003
    _ZN2sp5video14ImageLoaderTGAD0Ev @2004
    _ZN2sp5video14ImageLoaderTGAD1Ev @2005
    _ZN2sp5video14ImageLoaderTGAD2Ev @2006
    _ZN2sp5video14ImageLoaderWAD10readHeaderEv @2007
    _ZN2sp5video14ImageLoaderWAD12readTexturesEv @2008
    _ZN2sp5video14ImageLoaderWAD15loadTextureListERKNS_2io6stringIcEE @2009
    _ZN2sp5video14ImageLoaderWAD15readTextureInfoEv @2010
    _ZN2sp5video14ImageLoaderWAD4initEv @2011
    _ZN2sp5video14ImageLoaderWAD5clearEv @2012
    _ZN2sp5video14ImageLoaderWAD5resetEv @2013
    _ZN2sp5video14ImageLoaderWADC1Ev @2014
    _ZN2sp5video14ImageLoaderWADC2Ev @2015
    _ZN2sp5video14ImageLoaderWADD1Ev @2016
    _ZN2sp5video14ImageLoaderWADD2Ev @2017
    _ZN2sp5video14MaterialStates14setAlphaMethodENS0_21ESizeComparisionTypesEf @2018
    _ZN2sp5video14MaterialStates18setDefaultBlendingENS0_21EDefaultBlendingTypesERNS0_14EBlendingTypesES4_ @2019
    _ZN2sp5video14MaterialStates4copyEPKS1_ @2020
    _ZN2sp5video14MaterialStates6updateEv @2021
    _ZN2sp5video14MaterialStatesC1EPKS1_ @2022
    _ZN2sp5video14MaterialStatesC1Ev @2023
    _ZN2sp5video14MaterialStatesC2EPKS1_ @2024
    _ZN2sp5video14MaterialStatesC2Ev @2025
    _ZN2sp5video14MaterialStatesD0Ev @2026
    _ZN2sp5video14MaterialStatesD1Ev @2027
    _ZN2sp5video14MaterialStatesD2Ev @2028
    _ZN2sp5video15CgShaderContext10cgContext_E @2029 DATA
    _ZN2sp5video15CgShaderContext13RendererType_E @2030 DATA
    _ZN2sp5video15CgShaderContext13checkForErrorERKNS_2io6stringIcEE @2031
    _ZN2sp5video15CgShaderContextC1Ev @2032
    _ZN2sp5video15CgShaderContextC2Ev @2033
    _ZN2sp5video15CgShaderContextD1Ev @2034
    _ZN2sp5video15CgShaderContextD2Ev @2035
    _ZN2sp5video15CgShaderProgram11setConstantERKNS_2io6stringIcEEPKfi @2036
    _ZN2sp5video15CgShaderProgram11setConstantERKNS_2io6stringIcEEPKii @2037
    _ZN2sp5video15CgShaderProgram11setConstantERKNS_2io6stringIcEERKNS0_5colorE @2038
    _ZN2sp5video15CgShaderProgram11setConstantERKNS_2io6stringIcEERKNS_3dim7matrix4IfEE @2039
    _ZN2sp5video15CgShaderProgram11setConstantERKNS_2io6stringIcEERKNS_3dim8vector3dIfEE @2040
    _ZN2sp5video15CgShaderProgram11setConstantERKNS_2io6stringIcEERKNS_3dim8vector4dIfEE @2041
    _ZN2sp5video15CgShaderProgram11setConstantERKNS_2io6stringIcEEf @2042
    _ZN2sp5video15CgShaderProgram11setConstantERKNS_2io6stringIcEEi @2043
    _ZN2sp5video15CgShaderProgram12ActiveParam_E @2044 DATA
    _ZN2sp5video15CgShaderProgram13createProgramERKNS_2io6stringIcEES6_PPKc @2045
    _ZN2sp5video15CgShaderProgram20setupShaderConstantsEv @2046
    _ZN2sp5video15CgShaderProgram7compileERKSt6vectorINS_2io6stringIcEESaIS5_EERKS5_ @2047
    _ZN2sp5video15CgShaderProgram8getParamERKNS_2io6stringIcEE @2048
    _ZN2sp5video15CgShaderProgramC1EPNS0_11ShaderTableENS0_12EShaderTypesENS0_15EShaderVersionsE @2049
    _ZN2sp5video15CgShaderProgramC2EPNS0_11ShaderTableENS0_12EShaderTypesENS0_15EShaderVersionsE @2050
    _ZN2sp5video15CgShaderProgramD0Ev @2051
    _ZN2sp5video15CgShaderProgramD1Ev @2052
    _ZN2sp5video15CgShaderProgramD2Ev @2053
    _ZN2sp5video15ComputeShaderIO14addInputBufferEjjPv @2054
    _ZN2sp5video15ComputeShaderIO15addOutputBufferEjj @2055
    _ZN2sp5video15ComputeShaderIO9getBufferEjPv @2056
    _ZN2sp5video15ComputeShaderIO9setBufferEjPKv @2057
    _ZN2sp5video15ComputeShaderIOD0Ev @2058
    _ZN2sp5video15ComputeShaderIOD1Ev @2059
    _ZN2sp5video15Direct3D9Shader11compileHLSLEPKcS3_S3_ @2060
    _ZN2sp5video15Direct3D9Shader11setConstantEPKfii @2061
    _ZN2sp5video15Direct3D9Shader11setConstantERKNS_2io6stringIcEEPKfi @2062
    _ZN2sp5video15Direct3D9Shader11setConstantERKNS_2io6stringIcEEPKii @2063
    _ZN2sp5video15Direct3D9Shader11setConstantERKNS_2io6stringIcEERKNS0_5colorE @2064
    _ZN2sp5video15Direct3D9Shader11setConstantERKNS_2io6stringIcEERKNS_3dim7matrix4IfEE @2065
    _ZN2sp5video15Direct3D9Shader11setConstantERKNS_2io6stringIcEERKNS_3dim8vector3dIfEE @2066
    _ZN2sp5video15Direct3D9Shader11setConstantERKNS_2io6stringIcEERKNS_3dim8vector4dIfEE @2067
    _ZN2sp5video15Direct3D9Shader11setConstantERKNS_2io6stringIcEEf @2068
    _ZN2sp5video15Direct3D9Shader11setConstantERKNS_2io6stringIcEEi @2069
    _ZN2sp5video15Direct3D9Shader11setConstantEiNS0_14EConstantTypesEPKfi @2070
    _ZN2sp5video15Direct3D9Shader11setConstantEiNS0_14EConstantTypesERKNS0_5colorE @2071
    _ZN2sp5video15Direct3D9Shader11setConstantEiNS0_14EConstantTypesERKNS_3dim7matrix4IfEE @2072
    _ZN2sp5video15Direct3D9Shader11setConstantEiNS0_14EConstantTypesERKNS_3dim8vector3dIfEE @2073
    _ZN2sp5video15Direct3D9Shader11setConstantEiNS0_14EConstantTypesEf @2074
    _ZN2sp5video15Direct3D9Shader14compileProgramEPKc @2075
    _ZN2sp5video15Direct3D9Shader16d3dCompileShaderEPKcjPK10_D3DXMACROP12ID3DXIncludeS3_S3_mPP11ID3DXBufferSB_PP18ID3DXConstantTable @2076
    _ZN2sp5video15Direct3D9Shader17d3dAssembleShaderEPKcjPK10_D3DXMACROP12ID3DXIncludemPP11ID3DXBufferSB_ @2077
    _ZN2sp5video15Direct3D9Shader19createProgramStringERKSt6vectorINS_2io6stringIcEESaIS5_EERPc @2078
    _ZN2sp5video15Direct3D9Shader20setupShaderConstantsEv @2079
    _ZN2sp5video15Direct3D9Shader7compileERKSt6vectorINS_2io6stringIcEESaIS5_EERKS5_ @2080
    _ZN2sp5video15Direct3D9ShaderC1EPNS0_11ShaderTableENS0_12EShaderTypesENS0_15EShaderVersionsE @2081
    _ZN2sp5video15Direct3D9ShaderC2EPNS0_11ShaderTableENS0_12EShaderTypesENS0_15EShaderVersionsE @2082
    _ZN2sp5video15Direct3D9ShaderD0Ev @2083
    _ZN2sp5video15Direct3D9ShaderD1Ev @2084
    _ZN2sp5video15Direct3D9ShaderD2Ev @2085
    _ZN2sp5video16Direct3D9Texture12updateFormatEv @2086
    _ZN2sp5video16Direct3D9Texture13createMipMapsEi @2087
    _ZN2sp5video16Direct3D9Texture16shareImageBufferEv @2088
    _ZN2sp5video16Direct3D9Texture16updateFormatSizeEv @2089
    _ZN2sp5video16Direct3D9Texture17recreateHWTextureEv @2090
    _ZN2sp5video16Direct3D9Texture17setColorIntensityEfff @2091
    _ZN2sp5video16Direct3D9Texture17updateBaseTextureEv @2092
    _ZN2sp5video16Direct3D9Texture17updateImageBufferEv @2093
    _ZN2sp5video16Direct3D9Texture18updateImageTextureEv @2094
    _ZN2sp5video16Direct3D9Texture19generateMipMapLevelEPiS2_ii @2095
    _ZN2sp5video16Direct3D9Texture22readImageSurfaceBufferEPKhPhii @2096
    _ZN2sp5video16Direct3D9Texture22updateImageCubeTextureEi @2097
    _ZN2sp5video16Direct3D9Texture23writeImageSurfaceBufferEPhPKhii @2098
    _ZN2sp5video16Direct3D9Texture24updateImageVolumeTextureEv @2099
    _ZN2sp5video16Direct3D9Texture5clearEv @2100
    _ZN2sp5video16Direct3D9TextureC1EP17IDirect3DTexture9P21IDirect3DCubeTexture9P23IDirect3DVolumeTexture9RKNS0_21STextureCreationFlagsE @2101
    _ZN2sp5video16Direct3D9TextureC1Ev @2102
    _ZN2sp5video16Direct3D9TextureC2EP17IDirect3DTexture9P21IDirect3DCubeTexture9P23IDirect3DVolumeTexture9RKNS0_21STextureCreationFlagsE @2103
    _ZN2sp5video16Direct3D9TextureC2Ev @2104
    _ZN2sp5video16Direct3D9TextureD0Ev @2105
    _ZN2sp5video16Direct3D9TextureD1Ev @2106
    _ZN2sp5video16Direct3D9TextureD2Ev @2107
    _ZN2sp5video16VertexFormatFullC1Ev @2108
    _ZN2sp5video16VertexFormatFullC2Ev @2109
    _ZN2sp5video16VertexFormatFullD0Ev @2110
    _ZN2sp5video16VertexFormatFullD1Ev @2111
    _ZN2sp5video16VertexFormatFullD2Ev @2112
    _ZN2sp5video17CgShaderProgramGL4bindEv @2113
    _ZN2sp5video17CgShaderProgramGL6unbindEv @2114
    _ZN2sp5video17CgShaderProgramGL9compileCgERKNS_2io6stringIcEES6_ @2115
    _ZN2sp5video17CgShaderProgramGLC1EPNS0_11ShaderTableENS0_12EShaderTypesENS0_15EShaderVersionsE @2116
    _ZN2sp5video17CgShaderProgramGLC2EPNS0_11ShaderTableENS0_12EShaderTypesENS0_15EShaderVersionsE @2117
    _ZN2sp5video17CgShaderProgramGLD0Ev @2118
    _ZN2sp5video17CgShaderProgramGLD1Ev @2119
    _ZN2sp5video17CgShaderProgramGLD2Ev @2120
    _ZN2sp5video17DummyRenderSystem11copyTextureEPKNS0_7TextureE @2121
    _ZN2sp5video17DummyRenderSystem11flipBuffersEv @2122
    _ZN2sp5video17DummyRenderSystem11loadTextureEPNS0_11ImageLoaderE @2123
    _ZN2sp5video17DummyRenderSystem12clearBuffersEi @2124
    _ZN2sp5video17DummyRenderSystem13createTextureERKNS_3dim6size2dIiEENS0_13EPixelFormatsEPKhRKNS_2io6stringIcEE @2125
    _ZN2sp5video17DummyRenderSystem13createTextureERKNS_3dim6size2dIiEENS0_13EPixelFormatsERKNS_2io6stringIcEE @2126
    _ZN2sp5video17DummyRenderSystem14setRenderStateENS0_13ERenderStatesEi @2127
    _ZN2sp5video17DummyRenderSystem18setupConfigurationEv @2128
    _ZN2sp5video17DummyRenderSystem19setupMaterialStatesEPKNS0_14MaterialStatesE @2129
    _ZN2sp5video17DummyRenderSystem21updateModelviewMatrixEv @2130
    _ZN2sp5video17DummyRenderSystem5clearEv @2131
    _ZN2sp5video17DummyRenderSystemC1Ev @2132
    _ZN2sp5video17DummyRenderSystemC2Ev @2133
    _ZN2sp5video17DummyRenderSystemD0Ev @2134
    _ZN2sp5video17DummyRenderSystemD1Ev @2135
    _ZN2sp5video17DummyRenderSystemD2Ev @2136
    _ZN2sp5video17OpenGLShaderTable13setupUniformsEv @2137
    _ZN2sp5video17OpenGLShaderTable17addShaderConstantEPKcjj @2138
    _ZN2sp5video17OpenGLShaderTable17setupVertexFormatEPNS0_12VertexFormatE @2139
    _ZN2sp5video17OpenGLShaderTable18LastProgramObject_E @2140 DATA
    _ZN2sp5video17OpenGLShaderTable18checkLinkingErrorsEv @2141
    _ZN2sp5video17OpenGLShaderTable18deleteShaderObjectEPNS0_6ShaderE @2142
    _ZN2sp5video17OpenGLShaderTable4bindEPKNS_5scene12MaterialNodeE @2143
    _ZN2sp5video17OpenGLShaderTable4linkEv @2144
    _ZN2sp5video17OpenGLShaderTable6unbindEv @2145
    _ZN2sp5video17OpenGLShaderTableC1EPNS0_12VertexFormatE @2146
    _ZN2sp5video17OpenGLShaderTableC2EPNS0_12VertexFormatE @2147
    _ZN2sp5video17OpenGLShaderTableD0Ev @2148
    _ZN2sp5video17OpenGLShaderTableD1Ev @2149
    _ZN2sp5video17OpenGLShaderTableD2Ev @2150
    _ZN2sp5video17SHeightMapTexture11clearBufferEv @2151
    _ZN2sp5video17SHeightMapTexture12createBufferEPKNS0_7TextureE @2152
    _ZN2sp5video17SHeightMapTexture12createBufferERKNS_3dim6size2dIiEEiPKf @2153
    _ZN2sp5video17SHeightMapTextureC1EPKNS0_7TextureE @2154
    _ZN2sp5video17SHeightMapTextureC1Ev @2155
    _ZN2sp5video17SHeightMapTextureC2EPKNS0_7TextureE @2156
    _ZN2sp5video17SHeightMapTextureC2Ev @2157
    _ZN2sp5video17SHeightMapTextureD1Ev @2158
    _ZN2sp5video17SHeightMapTextureD2Ev @2159
    _ZN2sp5video18OpenGLRenderSystem10deleteFontEPNS0_4FontE @2160
    _ZN2sp5video18OpenGLRenderSystem10draw2DLineERKNS_3dim7point2dIiEES6_RKNS0_5colorE @2161
    _ZN2sp5video18OpenGLRenderSystem10draw2DLineERKNS_3dim7point2dIiEES6_RKNS0_5colorES9_ @2162
    _ZN2sp5video18OpenGLRenderSystem10draw2DTextEPNS0_4FontERKNS_3dim7point2dIiEERKNS_2io6stringIcEERKNS0_5colorE @2163
    _ZN2sp5video18OpenGLRenderSystem10draw3DLineERKNS_3dim8vector3dIfEES6_RKNS0_5colorE @2164
    _ZN2sp5video18OpenGLRenderSystem10draw3DLineERKNS_3dim8vector3dIfEES6_RKNS0_5colorES9_ @2165
    _ZN2sp5video18OpenGLRenderSystem10draw3DTextEPNS0_4FontERKNS_3dim7matrix4IfEERKNS_2io6stringIcEERKNS0_5colorE @2166
    _ZN2sp5video18OpenGLRenderSystem11draw2DImageEPNS0_7TextureERKNS_3dim6rect2dIiEERKNS5_IfEERKNS0_5colorE @2167
    _ZN2sp5video18OpenGLRenderSystem11draw2DImageEPNS0_7TextureERKNS_3dim7point2dIiEERKNS0_5colorE @2168
    _ZN2sp5video18OpenGLRenderSystem11draw2DImageEPNS0_7TextureERKNS_3dim7point2dIiEES8_S8_S8_RKNS5_IfEESB_SB_SB_RKNS0_5colorESE_SE_SE_ @2169
    _ZN2sp5video18OpenGLRenderSystem11draw2DImageEPNS0_7TextureERKNS_3dim7point2dIiEEffRKNS0_5colorE @2170
    _ZN2sp5video18OpenGLRenderSystem11draw2DPointERKNS_3dim7point2dIiEERKNS0_5colorE @2171
    _ZN2sp5video18OpenGLRenderSystem11draw3DPointERKNS_3dim8vector3dIfEERKNS0_5colorE @2172
    _ZN2sp5video18OpenGLRenderSystem12setAntiAliasEb @2173
    _ZN2sp5video18OpenGLRenderSystem13draw2DPolygonENS0_17ERenderPrimitivesEPKNS_5scene18SPrimitiveVertex2DEj @2174
    _ZN2sp5video18OpenGLRenderSystem13draw3DEllipseERKNS_3dim8vector3dIfEES6_RKNS2_6size2dIfEERKNS0_5colorE @2175
    _ZN2sp5video18OpenGLRenderSystem14createCgShaderEPNS0_11ShaderTableENS0_12EShaderTypesENS0_15EShaderVersionsERKSt6vectorINS_2io6stringIcEESaIS9_EERKS9_ @2176
    _ZN2sp5video18OpenGLRenderSystem14draw3DTriangleEPNS0_7TextureERKNS_3dim10triangle3dIfNS4_8vector3dIfEEEERKNS0_5colorE @2177
    _ZN2sp5video18OpenGLRenderSystem14drawMeshBufferEPKNS0_10MeshBufferE @2178
    _ZN2sp5video18OpenGLRenderSystem14loadExtensionsEv @2179
    _ZN2sp5video18OpenGLRenderSystem14setColorMatrixERKNS_3dim7matrix4IfEE @2180
    _ZN2sp5video18OpenGLRenderSystem15draw2DRectangleERKNS_3dim6rect2dIiEERKNS0_5colorES9_S9_S9_b @2181
    _ZN2sp5video18OpenGLRenderSystem15draw2DRectangleERKNS_3dim6rect2dIiEERKNS0_5colorEb @2182
    _ZN2sp5video18OpenGLRenderSystem17deleteFontObjectsEv @2183
    _ZN2sp5video18OpenGLRenderSystem17drawPrimitiveListENS0_17ERenderPrimitivesEPKNS_5scene13SMeshVertex3DEjPKvjPSt6vectorINS0_19SMeshSurfaceTextureESaISA_EE @2184
    _ZN2sp5video18OpenGLRenderSystem17drawStencilShadowERKNS0_5colorE @2185
    _ZN2sp5video18OpenGLRenderSystem17releaseFontObjectEPNS0_4FontE @2186
    _ZN2sp5video18OpenGLRenderSystem18clearStencilBufferEv @2187
    _ZN2sp5video18OpenGLRenderSystem18setupConfigurationEv @2188
    _ZN2sp5video18OpenGLRenderSystem19setupMaterialStatesEPKNS0_14MaterialStatesE @2189
    _ZN2sp5video18OpenGLRenderSystem21defaultTextureGenModeEv @2190
    _ZN2sp5video18OpenGLRenderSystem23drawStencilShadowVolumeEPKNS_3dim8vector3dIfEEibb @2191
    _ZN2sp5video18OpenGLRenderSystem8loadFontERKNS_2io6stringIcEENS_3dim6size2dIiEEi @2192
    _ZN2sp5video18OpenGLRenderSystem8setVsyncEb @2193
    _ZN2sp5video18OpenGLRenderSystemC1Ev @2194
    _ZN2sp5video18OpenGLRenderSystemC2Ev @2195
    _ZN2sp5video18OpenGLRenderSystemD0Ev @2196
    _ZN2sp5video18OpenGLRenderSystemD1Ev @2197
    _ZN2sp5video18OpenGLRenderSystemD2Ev @2198
    _ZN2sp5video19CgShaderProgramD3D94bindEv @2199
    _ZN2sp5video19CgShaderProgramD3D96unbindEv @2200
    _ZN2sp5video19CgShaderProgramD3D99compileCgERKNS_2io6stringIcEES6_ @2201
    _ZN2sp5video19CgShaderProgramD3D9C1EPNS0_11ShaderTableENS0_12EShaderTypesENS0_15EShaderVersionsE @2202
    _ZN2sp5video19CgShaderProgramD3D9C2EPNS0_11ShaderTableENS0_12EShaderTypesENS0_15EShaderVersionsE @2203
    _ZN2sp5video19CgShaderProgramD3D9D0Ev @2204
    _ZN2sp5video19CgShaderProgramD3D9D1Ev @2205
    _ZN2sp5video19CgShaderProgramD3D9D2Ev @2206
    _ZN2sp5video19GLFramebufferObject16setupCubeMapFaceEjNS0_13EPixelFormatsENS0_18ECubeMapDirectionsE @2207
    _ZN2sp5video19GLFramebufferObject17createFramebufferEjRKNS_3dim6size2dIiEEjNS0_13EPixelFormatsENS0_18ETextureDimensionsENS0_18ECubeMapDirectionsE @2208
    _ZN2sp5video19GLFramebufferObject17deleteFramebufferEv @2209
    _ZN2sp5video19GLFramebufferObject18releaseFramebufferERj @2210
    _ZN2sp5video19GLFramebufferObject19releaseRenderbufferERj @2211
    _ZN2sp5video19GLFramebufferObject22checkFrameBufferErrorsEv @2212
    _ZN2sp5video19GLFramebufferObject22updateMultiFramebufferERKNS_3dim6size2dIiEENS0_13EPixelFormatsERKSt6vectorIPNS0_7TextureESaISA_EE @2213
    _ZN2sp5video19GLFramebufferObject24attachFramebufferTextureEjjNS0_13EPixelFormatsENS0_18ETextureDimensionsENS0_18ECubeMapDirectionsE @2214
    _ZN2sp5video19GLFramebufferObject26blitFramebufferMultisampleERKNS_3dim6size2dIiEEj @2215
    _ZN2sp5video19GLFramebufferObject28createFramebufferMultisampleEjRKNS_3dim6size2dIiEEjjiRKSt6vectorIPNS0_7TextureESaIS9_EENS0_13EPixelFormatsENS0_18ETextureDimensionsENS0_18ECubeMapDirectionsE @2216
    _ZN2sp5video19GLFramebufferObjectC1Ev @2217
    _ZN2sp5video19GLFramebufferObjectC2Ev @2218
    _ZN2sp5video19GLFramebufferObjectD0Ev @2219
    _ZN2sp5video19GLFramebufferObjectD1Ev @2220
    _ZN2sp5video19GLFramebufferObjectD2Ev @2221
    _ZN2sp5video19OpenGLRenderContext11flipBuffersEv @2222
    _ZN2sp5video19OpenGLRenderContext17setupAntiAliasingEv @2223
    _ZN2sp5video19OpenGLRenderContext18openGraphicsScreenEPvRKNS_3dim6size2dIiEERKNS_2io6stringIcEEibRKNS_12SDeviceFlagsE @2224
    _ZN2sp5video19OpenGLRenderContext19closeGraphicsScreenEv @2225
    _ZN2sp5video19OpenGLRenderContext19createRenderContextEv @2226
    _ZN2sp5video19OpenGLRenderContext20releaseRenderContextEv @2227
    _ZN2sp5video19OpenGLRenderContext20switchFullscreenModeEb @2228
    _ZN2sp5video19OpenGLRenderContext22deleteContextAndWindowEv @2229
    _ZN2sp5video19OpenGLRenderContext8activateEv @2230
    _ZN2sp5video19OpenGLRenderContextC1Ev @2231
    _ZN2sp5video19OpenGLRenderContextC2Ev @2232
    _ZN2sp5video19OpenGLRenderContextD0Ev @2233
    _ZN2sp5video19OpenGLRenderContextD1Ev @2234
    _ZN2sp5video19OpenGLRenderContextD2Ev @2235
    _ZN2sp5video19VertexFormatDefaultC1Ev @2236
    _ZN2sp5video19VertexFormatDefaultC2Ev @2237
    _ZN2sp5video19VertexFormatDefaultD0Ev @2238
    _ZN2sp5video19VertexFormatDefaultD1Ev @2239
    _ZN2sp5video19VertexFormatDefaultD2Ev @2240
    _ZN2sp5video19VertexFormatReducedC1Ev @2241
    _ZN2sp5video19VertexFormatReducedC2Ev @2242
    _ZN2sp5video19VertexFormatReducedD0Ev @2243
    _ZN2sp5video19VertexFormatReducedD1Ev @2244
    _ZN2sp5video19VertexFormatReducedD2Ev @2245
    _ZN2sp5video20DesktopRenderContext10showWindowEv @2246
    _ZN2sp5video20DesktopRenderContext11flipBuffersEv @2247
    _ZN2sp5video20DesktopRenderContext12createWindowERKNS_2io6stringIcEE @2248
    _ZN2sp5video20DesktopRenderContext12deleteWindowEv @2249
    _ZN2sp5video20DesktopRenderContext15getWindowObjectEv @2250
    _ZN2sp5video20DesktopRenderContext16WINDOW_CLASSNAMEE @2251 DATA
    _ZN2sp5video20DesktopRenderContext18openGraphicsScreenEPvRKNS_3dim6size2dIiEERKNS_2io6stringIcEEibRKNS_12SDeviceFlagsE @2252
    _ZN2sp5video20DesktopRenderContext19closeGraphicsScreenEv @2253
    _ZN2sp5video20DesktopRenderContext19registerWindowClassEv @2254
    _ZN2sp5video20DesktopRenderContext21unregisterWindowClassEv @2255
    _ZN2sp5video20DesktopRenderContext8activateEv @2256
    _ZN2sp5video20DesktopRenderContextC1Ev @2257
    _ZN2sp5video20DesktopRenderContextC2Ev @2258
    _ZN2sp5video20DesktopRenderContextD0Ev @2259
    _ZN2sp5video20DesktopRenderContextD1Ev @2260
    _ZN2sp5video20DesktopRenderContextD2Ev @2261
    _ZN2sp5video20Direct3D9ShaderTable4bindEPKNS_5scene12MaterialNodeE @2262
    _ZN2sp5video20Direct3D9ShaderTable4linkEv @2263
    _ZN2sp5video20Direct3D9ShaderTable6unbindEv @2264
    _ZN2sp5video20Direct3D9ShaderTableC1Ev @2265
    _ZN2sp5video20Direct3D9ShaderTableC2Ev @2266
    _ZN2sp5video20Direct3D9ShaderTableD0Ev @2267
    _ZN2sp5video20Direct3D9ShaderTableD1Ev @2268
    _ZN2sp5video20Direct3D9ShaderTableD2Ev @2269
    _ZN2sp5video20VertexFormatExtendedC1Ev @2270
    _ZN2sp5video20VertexFormatExtendedC2Ev @2271
    _ZN2sp5video20VertexFormatExtendedD0Ev @2272
    _ZN2sp5video20VertexFormatExtendedD1Ev @2273
    _ZN2sp5video20VertexFormatExtendedD2Ev @2274
    _ZN2sp5video21Direct3D9RenderSystem10deleteFontEPNS0_4FontE @2275
    _ZN2sp5video21Direct3D9RenderSystem10draw2DLineERKNS_3dim7point2dIiEES6_RKNS0_5colorE @2276
    _ZN2sp5video21Direct3D9RenderSystem10draw2DLineERKNS_3dim7point2dIiEES6_RKNS0_5colorES9_ @2277
    _ZN2sp5video21Direct3D9RenderSystem10draw2DLineERKNS_3dim7point2dIiEES6_RKNS0_5colorEi @2278
    _ZN2sp5video21Direct3D9RenderSystem10draw2DTextEPNS0_4FontERKNS_3dim7point2dIiEERKNS_2io6stringIcEERKNS0_5colorE @2279
    _ZN2sp5video21Direct3D9RenderSystem10draw3DLineERKNS_3dim8vector3dIfEES6_RKNS0_5colorE @2280
    _ZN2sp5video21Direct3D9RenderSystem10draw3DLineERKNS_3dim8vector3dIfEES6_RKNS0_5colorES9_ @2281
    _ZN2sp5video21Direct3D9RenderSystem11copyTextureEPKNS0_7TextureE @2282
    _ZN2sp5video21Direct3D9RenderSystem11draw2DImageEPNS0_7TextureERKNS_3dim6rect2dIiEERKNS5_IfEERKNS0_5colorE @2283
    _ZN2sp5video21Direct3D9RenderSystem11draw2DImageEPNS0_7TextureERKNS_3dim7point2dIiEERKNS0_5colorE @2284
    _ZN2sp5video21Direct3D9RenderSystem11draw2DImageEPNS0_7TextureERKNS_3dim7point2dIiEES8_S8_S8_RKNS5_IfEESB_SB_SB_RKNS0_5colorESE_SE_SE_ @2285
    _ZN2sp5video21Direct3D9RenderSystem11draw2DImageEPNS0_7TextureERKNS_3dim7point2dIiEEffRKNS0_5colorE @2286
    _ZN2sp5video21Direct3D9RenderSystem11draw2DPointERKNS_3dim7point2dIiEERKNS0_5colorE @2287
    _ZN2sp5video21Direct3D9RenderSystem11draw3DPointERKNS_3dim8vector3dIfEERKNS0_5colorE @2288
    _ZN2sp5video21Direct3D9RenderSystem11loadTextureEPNS0_11ImageLoaderE @2289
    _ZN2sp5video21Direct3D9RenderSystem11popViewportEv @2290
    _ZN2sp5video21Direct3D9RenderSystem11setBlendingENS0_14EBlendingTypesES2_ @2291
    _ZN2sp5video21Direct3D9RenderSystem11setClippingEbRKNS_3dim7point2dIiEERKNS2_6size2dIiEE @2292
    _ZN2sp5video21Direct3D9RenderSystem11setFogColorERKNS0_5colorE @2293
    _ZN2sp5video21Direct3D9RenderSystem11setFogRangeEfffNS0_9EFogModesE @2294
    _ZN2sp5video21Direct3D9RenderSystem11setLineSizeEi @2295
    _ZN2sp5video21Direct3D9RenderSystem11setViewportERKNS_3dim7point2dIiEERKNS2_6size2dIiEE @2296
    _ZN2sp5video21Direct3D9RenderSystem11updateLightEjNS_5scene12ELightModelsEbRKNS_3dim8vector3dIfEEfffff @2297
    _ZN2sp5video21Direct3D9RenderSystem12clearBuffersEi @2298
    _ZN2sp5video21Direct3D9RenderSystem12createShaderEPNS0_11ShaderTableENS0_12EShaderTypesENS0_15EShaderVersionsERKSt6vectorINS_2io6stringIcEESaIS9_EERKS9_ @2299
    _ZN2sp5video21Direct3D9RenderSystem12endDrawing2DEv @2300
    _ZN2sp5video21Direct3D9RenderSystem12endDrawing3DEv @2301
    _ZN2sp5video21Direct3D9RenderSystem12pushViewportEv @2302
    _ZN2sp5video21Direct3D9RenderSystem12setAntiAliasEb @2303
    _ZN2sp5video21Direct3D9RenderSystem12setClipPlaneEjRKNS_3dim7plane3dIfEEb @2304
    _ZN2sp5video21Direct3D9RenderSystem12setColorMaskEbbbb @2305
    _ZN2sp5video21Direct3D9RenderSystem12setDepthMaskEb @2306
    _ZN2sp5video21Direct3D9RenderSystem12setPointSizeEi @2307
    _ZN2sp5video21Direct3D9RenderSystem12setShadeModeENS0_15EShadeModeTypesE @2308
    _ZN2sp5video21Direct3D9RenderSystem13createTextureERKNS_3dim6size2dIiEENS0_13EPixelFormatsEPKhRKNS_2io6stringIcEE @2309
    _ZN2sp5video21Direct3D9RenderSystem13draw2DPolygonENS0_17ERenderPrimitivesEPKNS_5scene18SPrimitiveVertex2DEj @2310
    _ZN2sp5video21Direct3D9RenderSystem13draw3DEllipseERKNS_3dim8vector3dIfEES6_RKNS2_6size2dIfEERKNS0_5colorE @2311
    _ZN2sp5video21Direct3D9RenderSystem13setClearColorERKNS0_5colorE @2312
    _ZN2sp5video21Direct3D9RenderSystem13setLightColorEjRKNS0_5colorES4_S4_ @2313
    _ZN2sp5video21Direct3D9RenderSystem13setViewMatrixERKNS_3dim7matrix4IfEE @2314
    _ZN2sp5video21Direct3D9RenderSystem13unbindShadersEv @2315
    _ZN2sp5video21Direct3D9RenderSystem14beginDrawing2DEv @2316
    _ZN2sp5video21Direct3D9RenderSystem14beginDrawing3DEv @2317
    _ZN2sp5video21Direct3D9RenderSystem14createCgShaderEPNS0_11ShaderTableENS0_12EShaderTypesENS0_15EShaderVersionsERKSt6vectorINS_2io6stringIcEESaIS9_EERKS9_ @2318
    _ZN2sp5video21Direct3D9RenderSystem14draw3DTriangleEPNS0_7TextureERKNS_3dim10triangle3dIfNS4_8vector3dIfEEEERKNS0_5colorE @2319
    _ZN2sp5video21Direct3D9RenderSystem14drawMeshBufferEPKNS0_10MeshBufferE @2320
    _ZN2sp5video21Direct3D9RenderSystem14enableBlendingEv @2321
    _ZN2sp5video21Direct3D9RenderSystem14setColorMatrixERKNS_3dim7matrix4IfEE @2322
    _ZN2sp5video21Direct3D9RenderSystem14setLightStatusEjb @2323
    _ZN2sp5video21Direct3D9RenderSystem14setRenderStateENS0_13ERenderStatesEi @2324
    _ZN2sp5video21Direct3D9RenderSystem14setWorldMatrixERKNS_3dim7matrix4IfEE @2325
    _ZN2sp5video21Direct3D9RenderSystem15bindTextureListERKSt6vectorINS0_19SMeshSurfaceTextureESaIS3_EE @2326
    _ZN2sp5video21Direct3D9RenderSystem15disableBlendingEv @2327
    _ZN2sp5video21Direct3D9RenderSystem15draw2DRectangleERKNS_3dim6rect2dIiEERKNS0_5colorES9_S9_S9_b @2328
    _ZN2sp5video21Direct3D9RenderSystem15draw2DRectangleERKNS_3dim6rect2dIiEERKNS0_5colorEb @2329
    _ZN2sp5video21Direct3D9RenderSystem15setRenderTargetEPNS0_7TextureE @2330
    _ZN2sp5video21Direct3D9RenderSystem16createScreenShotEPNS0_7TextureERKNS_3dim7point2dIiEE @2331
    _ZN2sp5video21Direct3D9RenderSystem16createScreenShotERKNS_3dim7point2dIiEENS2_6size2dIiEE @2332
    _ZN2sp5video21Direct3D9RenderSystem16disableTexturingEv @2333
    _ZN2sp5video21Direct3D9RenderSystem16setTextureMatrixERKNS_3dim7matrix4IfEEh @2334
    _ZN2sp5video21Direct3D9RenderSystem17createIndexBufferERPv @2335
    _ZN2sp5video21Direct3D9RenderSystem17createShaderTableEPNS0_12VertexFormatE @2336
    _ZN2sp5video21Direct3D9RenderSystem17deleteIndexBufferERPv @2337
    _ZN2sp5video21Direct3D9RenderSystem17drawPrimitiveListENS0_17ERenderPrimitivesEPKNS_5scene13SMeshVertex3DEjPKvjPSt6vectorINS0_19SMeshSurfaceTextureESaISA_EE @2338
    _ZN2sp5video21Direct3D9RenderSystem17drawStencilShadowERKNS0_5colorE @2339
    _ZN2sp5video21Direct3D9RenderSystem17unbindTextureListERKSt6vectorINS0_19SMeshSurfaceTextureESaIS3_EE @2340
    _ZN2sp5video21Direct3D9RenderSystem17updateIndexBufferEPvRKNS_3dim15UniversalBufferEPKNS0_11IndexFormatENS0_16EMeshBufferUsageE @2341
    _ZN2sp5video21Direct3D9RenderSystem18createVertexBufferERPv @2342
    _ZN2sp5video21Direct3D9RenderSystem18deleteVertexBufferERPv @2343
    _ZN2sp5video21Direct3D9RenderSystem18draw2DPolygonImageENS0_17ERenderPrimitivesEPNS0_7TextureEPKNS_5scene18SPrimitiveVertex2DEj @2344
    _ZN2sp5video21Direct3D9RenderSystem18setupConfigurationEv @2345
    _ZN2sp5video21Direct3D9RenderSystem18updateVertexBufferEPvRKNS_3dim15UniversalBufferEPKNS0_12VertexFormatENS0_16EMeshBufferUsageE @2346
    _ZN2sp5video21Direct3D9RenderSystem19setProjectionMatrixERKNS_3dim7matrix4IfEE @2347
    _ZN2sp5video21Direct3D9RenderSystem19setupMaterialStatesEPKNS0_14MaterialStatesE @2348
    _ZN2sp5video21Direct3D9RenderSystem19setupTextureFormatsENS0_13EPixelFormatsENS0_17EHWTextureFormatsER10_D3DFORMATRm @2349
    _ZN2sp5video21Direct3D9RenderSystem19updatePrimitiveListEPNS0_16SPrimitiveVertexEj @2350
    _ZN2sp5video21Direct3D9RenderSystem21addDynamicLightSourceEjNS_5scene12ELightModelsERNS0_5colorES5_S5_fff @2351
    _ZN2sp5video21Direct3D9RenderSystem21createRendererTextureEbNS0_18ETextureDimensionsENS_3dim8vector3dIiEENS0_13EPixelFormatsEPKhNS0_17EHWTextureFormatsEb @2352
    _ZN2sp5video21Direct3D9RenderSystem21disable3DRenderStatesEv @2353
    _ZN2sp5video21Direct3D9RenderSystem21updateModelviewMatrixEv @2354
    _ZN2sp5video21Direct3D9RenderSystem22setRenderTargetSurfaceEiPNS0_7TextureE @2355
    _ZN2sp5video21Direct3D9RenderSystem22setupTextureAttributesENS0_18ETextureDimensionsENS0_15ETextureFiltersES3_NS0_21ETextureMipMapFiltersEfbRKNS_3dim8vector3dINS0_17ETextureWrapModesEEE @2356
    _ZN2sp5video21Direct3D9RenderSystem23drawStencilShadowVolumeEPKNS_3dim8vector3dIfEEibb @2357
    _ZN2sp5video21Direct3D9RenderSystem23setDefaultAlphaBlendingEv @2358
    _ZN2sp5video21Direct3D9RenderSystem24updateIndexBufferElementEPvRKNS_3dim15UniversalBufferEj @2359
    _ZN2sp5video21Direct3D9RenderSystem25disableTriangleListStatesEv @2360
    _ZN2sp5video21Direct3D9RenderSystem25updateVertexBufferElementEPvRKNS_3dim15UniversalBufferEj @2361
    _ZN2sp5video21Direct3D9RenderSystem27updatePrimitiveListFlexibleEPNS0_16SPrimitiveVertexEj @2362
    _ZN2sp5video21Direct3D9RenderSystem4initEv @2363
    _ZN2sp5video21Direct3D9RenderSystem5clearEv @2364
    _ZN2sp5video21Direct3D9RenderSystem6setFogENS0_9EFogTypesE @2365
    _ZN2sp5video21Direct3D9RenderSystem8loadFontERKNS_2io6stringIcEENS_3dim6size2dIiEEi @2366
    _ZN2sp5video21Direct3D9RenderSystem8setVsyncEb @2367
    _ZN2sp5video21Direct3D9RenderSystemC1Ev @2368
    _ZN2sp5video21Direct3D9RenderSystemC2Ev @2369
    _ZN2sp5video21Direct3D9RenderSystemD0Ev @2370
    _ZN2sp5video21Direct3D9RenderSystemD1Ev @2371
    _ZN2sp5video21Direct3D9RenderSystemD2Ev @2372
    _ZN2sp5video21VertexFormatUniversal10addTangentENS0_18ERendererDataTypesE @2373
    _ZN2sp5video21VertexFormatUniversal11addBinormalENS0_18ERendererDataTypesE @2374
    _ZN2sp5video21VertexFormatUniversal11addFogCoordENS0_18ERendererDataTypesE @2375
    _ZN2sp5video21VertexFormatUniversal11addTexCoordENS0_18ERendererDataTypesEi @2376
    _ZN2sp5video21VertexFormatUniversal12addAttributeENS0_18EVertexFormatFlagsERNS0_16SVertexAttributeEiNS0_18ERendererDataTypesERKNS_2io6stringIcEEbb @2377
    _ZN2sp5video21VertexFormatUniversal12addUniversalENS0_18ERendererDataTypesEiRKNS_2io6stringIcEEbNS0_18EVertexFormatFlagsE @2378
    _ZN2sp5video21VertexFormatUniversal18updateConstructionEv @2379
    _ZN2sp5video21VertexFormatUniversal19addVirtualAttributeENS0_18EVertexFormatFlagsERNS0_16SVertexAttributeE @2380
    _ZN2sp5video21VertexFormatUniversal6removeENS0_18EVertexFormatFlagsE @2381
    _ZN2sp5video21VertexFormatUniversal8addColorENS0_18ERendererDataTypesEi @2382
    _ZN2sp5video21VertexFormatUniversal8addCoordENS0_18ERendererDataTypesEi @2383
    _ZN2sp5video21VertexFormatUniversal9addNormalENS0_18ERendererDataTypesE @2384
    _ZN2sp5video21VertexFormatUniversalC1Ev @2385
    _ZN2sp5video21VertexFormatUniversalC2Ev @2386
    _ZN2sp5video21VertexFormatUniversalD0Ev @2387
    _ZN2sp5video21VertexFormatUniversalD1Ev @2388
    _ZN2sp5video21VertexFormatUniversalD2Ev @2389
    _ZN2sp5video22Direct3D9RenderContext11flipBuffersEv @2390
    _ZN2sp5video22Direct3D9RenderContext18openGraphicsScreenEPvRKNS_3dim6size2dIiEERKNS_2io6stringIcEEibRKNS_12SDeviceFlagsE @2391
    _ZN2sp5video22Direct3D9RenderContext19closeGraphicsScreenEv @2392
    _ZN2sp5video22Direct3D9RenderContext19createRenderContextEv @2393
    _ZN2sp5video22Direct3D9RenderContext20checkAntiAliasFormatEv @2394
    _ZN2sp5video22Direct3D9RenderContext20releaseRenderContextEv @2395
    _ZN2sp5video22Direct3D9RenderContext20switchFullscreenModeEb @2396
    _ZN2sp5video22Direct3D9RenderContext23checkDepthStencilFormatEv @2397
    _ZN2sp5video22Direct3D9RenderContextC1Ev @2398
    _ZN2sp5video22Direct3D9RenderContextC2Ev @2399
    _ZN2sp5video22Direct3D9RenderContextD0Ev @2400
    _ZN2sp5video22Direct3D9RenderContextD1Ev @2401
    _ZN2sp5video22Direct3D9RenderContextD2Ev @2402
    _ZN2sp5video23GLFixedFunctionPipeline10ExtTmpMat_E @2403 DATA
    _ZN2sp5video23GLFixedFunctionPipeline11setFogColorERKNS0_5colorE @2404
    _ZN2sp5video23GLFixedFunctionPipeline11setFogRangeEfffNS0_9EFogModesE @2405
    _ZN2sp5video23GLFixedFunctionPipeline11updateLightEjNS_5scene12ELightModelsEbRKNS_3dim8vector3dIfEEfffff @2406
    _ZN2sp5video23GLFixedFunctionPipeline12endDrawing2DEv @2407
    _ZN2sp5video23GLFixedFunctionPipeline12endDrawing3DEv @2408
    _ZN2sp5video23GLFixedFunctionPipeline12setClipPlaneEjRKNS_3dim7plane3dIfEEb @2409
    _ZN2sp5video23GLFixedFunctionPipeline12setPointSizeEi @2410
    _ZN2sp5video23GLFixedFunctionPipeline12setShadeModeENS0_15EShadeModeTypesE @2411
    _ZN2sp5video23GLFixedFunctionPipeline13setLightColorEjRKNS0_5colorES4_S4_ @2412
    _ZN2sp5video23GLFixedFunctionPipeline13setViewMatrixERKNS_3dim7matrix4IfEE @2413
    _ZN2sp5video23GLFixedFunctionPipeline14beginDrawing2DEv @2414
    _ZN2sp5video23GLFixedFunctionPipeline14beginDrawing3DEv @2415
    _ZN2sp5video23GLFixedFunctionPipeline14setLightStatusEjb @2416
    _ZN2sp5video23GLFixedFunctionPipeline14setRenderStateENS0_13ERenderStatesEi @2417
    _ZN2sp5video23GLFixedFunctionPipeline15bindTextureListERKSt6vectorINS0_19SMeshSurfaceTextureESaIS3_EE @2418
    _ZN2sp5video23GLFixedFunctionPipeline15drawTextureFontEPNS0_4FontERKNS_3dim7point2dIiEERKNS_2io6stringIcEERKNS0_5colorE @2419
    _ZN2sp5video23GLFixedFunctionPipeline16createScreenShotEPNS0_7TextureERKNS_3dim7point2dIiEE @2420
    _ZN2sp5video23GLFixedFunctionPipeline16createScreenShotERKNS_3dim7point2dIiEENS2_6size2dIiEE @2421
    _ZN2sp5video23GLFixedFunctionPipeline16disableTexturingEv @2422
    _ZN2sp5video23GLFixedFunctionPipeline16setTextureMatrixERKNS_3dim7matrix4IfEEh @2423
    _ZN2sp5video23GLFixedFunctionPipeline17setupTextureLayerERKNS0_19SMeshSurfaceTextureE @2424
    _ZN2sp5video23GLFixedFunctionPipeline17unbindTextureListERKSt6vectorINS0_19SMeshSurfaceTextureESaIS3_EE @2425
    _ZN2sp5video23GLFixedFunctionPipeline18draw2DPolygonImageENS0_17ERenderPrimitivesEPNS0_7TextureEPKNS_5scene18SPrimitiveVertex2DEj @2426
    _ZN2sp5video23GLFixedFunctionPipeline18setDrawingMatrix2DEv @2427
    _ZN2sp5video23GLFixedFunctionPipeline19setProjectionMatrixERKNS_3dim7matrix4IfEE @2428
    _ZN2sp5video23GLFixedFunctionPipeline21addDynamicLightSourceEjNS_5scene12ELightModelsERNS0_5colorES5_S5_fff @2429
    _ZN2sp5video23GLFixedFunctionPipeline21disable3DRenderStatesEv @2430
    _ZN2sp5video23GLFixedFunctionPipeline21updateModelviewMatrixEv @2431
    _ZN2sp5video23GLFixedFunctionPipeline25disableTriangleListStatesEv @2432
    _ZN2sp5video23GLFixedFunctionPipeline6setFogENS0_9EFogTypesE @2433
    _ZN2sp5video23GLFixedFunctionPipelineC1Ev @2434
    _ZN2sp5video23GLFixedFunctionPipelineC2Ev @2435
    _ZN2sp5video23GLFixedFunctionPipelineD0Ev @2436
    _ZN2sp5video23GLFixedFunctionPipelineD1Ev @2437
    _ZN2sp5video23GLFixedFunctionPipelineD2Ev @2438
    _ZN2sp5video30GLProgrammableFunctionPipeline12createShaderEPNS0_11ShaderTableENS0_12EShaderTypesENS0_15EShaderVersionsERKSt6vectorINS_2io6stringIcEESaIS9_EERKS9_ @2439
    _ZN2sp5video30GLProgrammableFunctionPipeline12getBalanceRTEv @2440
    _ZN2sp5video30GLProgrammableFunctionPipeline12setBalanceRTEb @2441
    _ZN2sp5video30GLProgrammableFunctionPipeline13unbindShadersEv @2442
    _ZN2sp5video30GLProgrammableFunctionPipeline15setRenderTargetEPNS0_7TextureE @2443
    _ZN2sp5video30GLProgrammableFunctionPipeline16EnableBalanceRT_E @2444 DATA
    _ZN2sp5video30GLProgrammableFunctionPipeline17createShaderTableEPNS0_12VertexFormatE @2445
    _ZN2sp5video30GLProgrammableFunctionPipelineC1Ev @2446
    _ZN2sp5video30GLProgrammableFunctionPipelineC2Ev @2447
    _ZN2sp5video30GLProgrammableFunctionPipelineD0Ev @2448
    _ZN2sp5video30GLProgrammableFunctionPipelineD1Ev @2449
    _ZN2sp5video30GLProgrammableFunctionPipelineD2Ev @2450
    _ZN2sp5video4FontC1EPvRKNS_2io6stringIcEERKNS_3dim6size2dIiEERKSt6vectorIiSaIiEEPNS0_7TextureE @2451
    _ZN2sp5video4FontC1Ev @2452
    _ZN2sp5video4FontC2EPvRKNS_2io6stringIcEERKNS_3dim6size2dIiEERKSt6vectorIiSaIiEEPNS0_7TextureE @2453
    _ZN2sp5video4FontC2Ev @2454
    _ZN2sp5video4FontD1Ev @2455
    _ZN2sp5video4FontD2Ev @2456
    _ZN2sp5video5Movie13exitWithErrorERKNS_2io6stringIcEE @2457
    _ZN2sp5video5Movie13renderTextureEPNS0_7TextureE @2458
    _ZN2sp5video5Movie14flipDataBufferEPvj @2459
    _ZN2sp5video5Movie4playEb @2460
    _ZN2sp5video5Movie4stopEv @2461
    _ZN2sp5video5Movie5closeEv @2462
    _ZN2sp5video5Movie5pauseEb @2463
    _ZN2sp5video5Movie6reloadERKNS_2io6stringIcEEi @2464
    _ZN2sp5video5Movie7setSeekEf @2465
    _ZN2sp5video5Movie8setSpeedEf @2466
    _ZN2sp5video5MovieC1ERKNS_2io6stringIcEEi @2467
    _ZN2sp5video5MovieC2ERKNS_2io6stringIcEEi @2468
    _ZN2sp5video5MovieD1Ev @2469
    _ZN2sp5video5MovieD2Ev @2470
    _ZN2sp5video6Shader10printErrorERKNS_2io6stringIcEE @2471
    _ZN2sp5video6Shader11setConstantEPKfii @2472
    _ZN2sp5video6Shader11setConstantERKNS_2io6stringIcEEPKfi @2473
    _ZN2sp5video6Shader11setConstantERKNS_2io6stringIcEEPKii @2474
    _ZN2sp5video6Shader11setConstantERKNS_2io6stringIcEERKNS0_5colorE @2475
    _ZN2sp5video6Shader11setConstantERKNS_2io6stringIcEERKNS_3dim7matrix4IfEE @2476
    _ZN2sp5video6Shader11setConstantERKNS_2io6stringIcEERKNS_3dim8vector3dIfEE @2477
    _ZN2sp5video6Shader11setConstantERKNS_2io6stringIcEERKNS_3dim8vector4dIfEE @2478
    _ZN2sp5video6Shader11setConstantERKNS_2io6stringIcEEf @2479
    _ZN2sp5video6Shader11setConstantERKNS_2io6stringIcEEi @2480
    _ZN2sp5video6Shader11setConstantEiNS0_14EConstantTypesEPKfi @2481
    _ZN2sp5video6Shader11setConstantEiNS0_14EConstantTypesERKNS0_5colorE @2482
    _ZN2sp5video6Shader11setConstantEiNS0_14EConstantTypesERKNS_3dim7matrix4IfEE @2483
    _ZN2sp5video6Shader11setConstantEiNS0_14EConstantTypesERKNS_3dim8vector3dIfEE @2484
    _ZN2sp5video6Shader11setConstantEiNS0_14EConstantTypesEf @2485
    _ZN2sp5video6Shader11updateTableEv @2486
    _ZN2sp5video6Shader12printWarningERKNS_2io6stringIcEE @2487
    _ZN2sp5video6Shader17setConstantBufferERKNS_2io6stringIcEEPKv @2488
    _ZN2sp5video6Shader17setConstantBufferEjPKv @2489
    _ZN2sp5video6Shader7compileERKSt6vectorINS_2io6stringIcEESaIS5_EERKS5_ @2490
    _ZN2sp5video6ShaderC1EPNS0_11ShaderTableENS0_12EShaderTypesENS0_15EShaderVersionsE @2491
    _ZN2sp5video6ShaderC2EPNS0_11ShaderTableENS0_12EShaderTypesENS0_15EShaderVersionsE @2492
    _ZN2sp5video6ShaderD0Ev @2493
    _ZN2sp5video6ShaderD1Ev @2494
    _ZN2sp5video6ShaderD2Ev @2495
    _ZN2sp5video7Texture10flipColorsEv @2496
    _ZN2sp5video7Texture10loadBackupEv @2497
    _ZN2sp5video7Texture10mixTextureEPS1_NS0_16ETextureMixTypesE @2498
    _ZN2sp5video7Texture10saveBackupEv @2499
    _ZN2sp5video7Texture10setSizePOTEv @2500
    _ZN2sp5video7Texture11clearBackupEv @2501
    _ZN2sp5video7Texture11setColorKeyERKNS0_5colorE @2502
    _ZN2sp5video7Texture11setColorKeyERKNS0_5colorEh @2503
    _ZN2sp5video7Texture11setColorKeyERKNS_3dim7point2dIiEEhh @2504
    _ZN2sp5video7Texture11setWrapModeENS0_17ETextureWrapModesE @2505
    _ZN2sp5video7Texture11setWrapModeENS0_17ETextureWrapModesES2_S2_ @2506
    _ZN2sp5video7Texture12addAnimFrameEPS1_ @2507
    _ZN2sp5video7Texture12setAnimFrameEj @2508
    _ZN2sp5video7Texture12setAnimationEb @2509
    _ZN2sp5video7Texture12setDimensionENS0_18ETextureDimensionsEi @2510
    _ZN2sp5video7Texture12setMagFilterENS0_15ETextureFiltersE @2511
    _ZN2sp5video7Texture12setMinFilterENS0_15ETextureFiltersE @2512
    _ZN2sp5video7Texture13setMipMappingEb @2513
    _ZN2sp5video7Texture13setPixelColorERKNS_3dim7point2dIfEERKNS0_5colorE @2514
    _ZN2sp5video7Texture13setPixelColorERKNS_3dim7point2dIiEERKNS0_5colorE @2515
    _ZN2sp5video7Texture14generateMipMapEv @2516
    _ZN2sp5video7Texture14setCubeMapFaceENS0_18ECubeMapDirectionsE @2517
    _ZN2sp5video7Texture15addTextureFrameEPS1_NS0_22ETextureFrameDirectionE @2518
    _ZN2sp5video7Texture15removeAnimFrameEPS1_ @2519
    _ZN2sp5video7Texture15setColorKeyMaskEPS1_NS0_19EAlphaBlendingTypesE @2520
    _ZN2sp5video7Texture15setMipMapFilterENS0_21ETextureMipMapFiltersE @2521
    _ZN2sp5video7Texture15setMultiSamplesEi @2522
    _ZN2sp5video7Texture15setRenderTargetEb @2523
    _ZN2sp5video7Texture16setColorKeyAlphaENS0_19EAlphaBlendingTypesE @2524
    _ZN2sp5video7Texture16shareImageBufferEv @2525
    _ZN2sp5video7Texture16updateFormatSizeEv @2526
    _ZN2sp5video7Texture17flipImageVerticalEv @2527
    _ZN2sp5video7Texture17setAlphaIntensityEhNS0_16ETextureMixTypesE @2528
    _ZN2sp5video7Texture17setColorIntensityEfff @2529
    _ZN2sp5video7Texture17setHardwareFormatENS0_17EHWTextureFormatsE @2530
    _ZN2sp5video7Texture17updateImageBufferEPKh @2531
    _ZN2sp5video7Texture17updateImageBufferERKNS_3dim6size2dIiEEPKh @2532
    _ZN2sp5video7Texture17updateImageBufferERKNS_3dim7point2dIiEERKNS2_6size2dIiEEPKh @2533
    _ZN2sp5video7Texture17updateImageBufferEv @2534
    _ZN2sp5video7Texture18replaceImageBufferEPh @2535
    _ZN2sp5video7Texture19flipImageHorizontalEv @2536
    _ZN2sp5video7Texture20addMultiRenderTargetEPS1_ @2537
    _ZN2sp5video7Texture22clearMultiRenderTargetEv @2538
    _ZN2sp5video7Texture22updateHeightDepthRatioEv @2539
    _ZN2sp5video7Texture23removeMultiRenderTargetEPS1_ @2540
    _ZN2sp5video7Texture24updateMultiRenderTargetsEv @2541
    _ZN2sp5video7Texture4initEv @2542
    _ZN2sp5video7Texture7setSizeERKNS_3dim6size2dIiEE @2543
    _ZN2sp5video7Texture8setDepthEi @2544
    _ZN2sp5video7Texture9setFilterENS0_15ETextureFiltersE @2545
    _ZN2sp5video7Texture9setFilterENS0_15ETextureFiltersES2_ @2546
    _ZN2sp5video7Texture9setFormatENS0_13EPixelFormatsE @2547
    _ZN2sp5video7Texture9turnImageENS0_17EImageTurnDegreesE @2548
    _ZN2sp5video7TextureC1ERKNS0_21STextureCreationFlagsE @2549
    _ZN2sp5video7TextureC1Ev @2550
    _ZN2sp5video7TextureC2ERKNS0_21STextureCreationFlagsE @2551
    _ZN2sp5video7TextureC2Ev @2552
    _ZN2sp5video7TextureD0Ev @2553
    _ZN2sp5video7TextureD1Ev @2554
    _ZN2sp5video7TextureD2Ev @2555
    _ZN2sp7network13NetworkClientC1EPNS0_14NetworkAddressEPNS0_13NetworkSocketEb @2556
    _ZN2sp7network13NetworkClientC2EPNS0_14NetworkAddressEPNS0_13NetworkSocketEb @2557
    _ZN2sp7network13NetworkClientD1Ev @2558
    _ZN2sp7network13NetworkClientD2Ev @2559
    _ZN2sp7network13NetworkSocketC1E18EInternetProtocolsj @2560
    _ZN2sp7network13NetworkSocketC2E18EInternetProtocolsj @2561
    _ZN2sp7network13NetworkSocketD1Ev @2562
    _ZN2sp7network13NetworkSocketD2Ev @2563
    _ZN2sp7network13NetworkSystem10disconnectEv @2564
    _ZN2sp7network13NetworkSystem10joinServerERKNS_2io6stringIcEEtb @2565
    _ZN2sp7network13NetworkSystem10openServerEt @2566
    _ZN2sp7network13NetworkSystem10pickPacketERNS0_14SNetworkPacketE @2567
    _ZN2sp7network13NetworkSystem10sendPacketEPKvjPNS0_13NetworkClientE @2568
    _ZN2sp7network13NetworkSystem10sendPacketERKNS_2io6stringIcEEPNS0_13NetworkClientE @2569
    _ZN2sp7network13NetworkSystem12removeClientEPNS0_13NetworkClientE @2570
    _ZN2sp7network13NetworkSystem13createWinSockEv @2571
    _ZN2sp7network13NetworkSystem13deleteWinSockEv @2572
    _ZN2sp7network13NetworkSystem16addClientAccountEPNS0_13NetworkClientE @2573
    _ZN2sp7network13NetworkSystem16getServerRequestERKNS_2io6stringIcEES6_ @2574
    _ZN2sp7network13NetworkSystem16sendSocketPacketEjRKNS0_14SNetworkPacketE @2575
    _ZN2sp7network13NetworkSystem17sendNetworkPacketENS0_19ENetworkPacketTypesEPKvjPNS0_13NetworkClientES6_ @2576
    _ZN2sp7network13NetworkSystem19createClientAccountEj @2577
    _ZN2sp7network13NetworkSystem19createClientAccountEjRK11sockaddr_in @2578
    _ZN2sp7network13NetworkSystem19createServerAccountEv @2579
    _ZN2sp7network13NetworkSystem20sendWebServerRequestERKNS_2io6stringIcEE @2580
    _ZN2sp7network13NetworkSystem5yieldEj @2581
    _ZN2sp7network13NetworkSystemC1E18EInternetProtocols @2582
    _ZN2sp7network13NetworkSystemC2E18EInternetProtocols @2583
    _ZN2sp7network13NetworkSystemD1Ev @2584
    _ZN2sp7network13NetworkSystemD2Ev @2585
    _ZN2sp7network14NetworkAddressC1ERK11sockaddr_in @2586
    _ZN2sp7network14NetworkAddressC1EtRKNS_2io6stringIcEE @2587
    _ZN2sp7network14NetworkAddressC1Etj @2588
    _ZN2sp7network14NetworkAddressC2ERK11sockaddr_in @2589
    _ZN2sp7network14NetworkAddressC2EtRKNS_2io6stringIcEE @2590
    _ZN2sp7network14NetworkAddressC2Etj @2591
    _ZN2sp7network14NetworkAddressD1Ev @2592
    _ZN2sp7network14NetworkAddressD2Ev @2593
    _ZN2sp7physics10StaticBody10createMeshEv @2594
    _ZN2sp7physics10StaticBodyC1EPNS_5scene4MeshE @2595
    _ZN2sp7physics10StaticBodyC2EPNS_5scene4MeshE @2596
    _ZN2sp7physics10StaticBodyD0Ev @2597
    _ZN2sp7physics10StaticBodyD1Ev @2598
    _ZN2sp7physics10StaticBodyD2Ev @2599
    _ZN2sp7physics13PhysicsSystem10setGravityERKNS_3dim8vector3dIfEE @2600
    _ZN2sp7physics13PhysicsSystem14setSolverModelEi @2601
    _ZN2sp7physics13PhysicsSystem14setThreadCountEi @2602
    _ZN2sp7physics13PhysicsSystem15createRigidBodyEPNS_5scene4MeshEf @2603
    _ZN2sp7physics13PhysicsSystem15createRigidBodyEPNS_5scene9SceneNodeENS0_12ERigidBodiesERKNS0_22SRigidBodyConstructionEf @2604
    _ZN2sp7physics13PhysicsSystem15deleteRigidBodyEPNS0_9RigidBodyE @2605
    _ZN2sp7physics13PhysicsSystem16ContactCallback_E @2606 DATA
    _ZN2sp7physics13PhysicsSystem16createStaticBodyEPNS_5scene4MeshE @2607
    _ZN2sp7physics13PhysicsSystem16deleteStaticBodyEPNS0_10StaticBodyE @2608
    _ZN2sp7physics13PhysicsSystem16updateSimulationEf @2609
    _ZN2sp7physics13PhysicsSystem18getContactCallbackEv @2610
    _ZN2sp7physics13PhysicsSystem18setContactCallbackEPFvRKNS_3dim8vector3dIfEES6_fE @2611
    _ZN2sp7physics13PhysicsSystem9CurWorld_E @2612 DATA
    _ZN2sp7physics13PhysicsSystemC1Ev @2613
    _ZN2sp7physics13PhysicsSystemC2Ev @2614
    _ZN2sp7physics13PhysicsSystemD1Ev @2615
    _ZN2sp7physics13PhysicsSystemD2Ev @2616
    _ZN2sp7physics18PhysicsBasicObject11setPositionERKNS_3dim8vector3dIfEE @2617
    _ZN2sp7physics18PhysicsBasicObject11setRotationERKNS_3dim7matrix4IfEE @2618
    _ZN2sp7physics18PhysicsBasicObject17setTransformationERKNS_3dim7matrix4IfEE @2619
    _ZN2sp7physics18PhysicsBasicObjectC1Ev @2620
    _ZN2sp7physics18PhysicsBasicObjectC2Ev @2621
    _ZN2sp7physics18PhysicsBasicObjectD0Ev @2622
    _ZN2sp7physics18PhysicsBasicObjectD1Ev @2623
    _ZN2sp7physics18PhysicsBasicObjectD2Ev @2624
    _ZN2sp7physics9BodyJointC1ENS0_11EBodyJointsEPNS0_9RigidBodyEPNS0_18PhysicsBasicObjectERKNS_3dim8vector3dIfEESB_SB_ @2625
    _ZN2sp7physics9BodyJointC2ENS0_11EBodyJointsEPNS0_9RigidBodyEPNS0_18PhysicsBasicObjectERKNS_3dim8vector3dIfEESB_SB_ @2626
    _ZN2sp7physics9BodyJointD1Ev @2627
    _ZN2sp7physics9BodyJointD2Ev @2628
    _ZN2sp7physics9RigidBody10addImpulseERKNS_3dim8vector3dIfEES6_ @2629
    _ZN2sp7physics9RigidBody10createConeERKNS0_22SRigidBodyConstructionE @2630
    _ZN2sp7physics9RigidBody10createMeshEPNS_5scene4MeshE @2631
    _ZN2sp7physics9RigidBody11addVelocityERKNS_3dim8vector3dIfEE @2632
    _ZN2sp7physics9RigidBody11removeJointEPNS0_18PhysicsBasicObjectE @2633
    _ZN2sp7physics9RigidBody11removeJointEPNS0_9BodyJointE @2634
    _ZN2sp7physics9RigidBody11setRootNodeEPNS_5scene9SceneNodeE @2635
    _ZN2sp7physics9RigidBody11setVelocityERKNS_3dim8vector3dIfEE @2636
    _ZN2sp7physics9RigidBody12createSphereERKNS0_22SRigidBodyConstructionE @2637
    _ZN2sp7physics9RigidBody12setAutoSleepEb @2638
    _ZN2sp7physics9RigidBody13createCapsuleERKNS0_22SRigidBodyConstructionE @2639
    _ZN2sp7physics9RigidBody14createCylinderERKNS0_22SRigidBodyConstructionE @2640
    _ZN2sp7physics9RigidBody15setBalancePointERKNS_3dim8vector3dIfEE @2641
    _ZN2sp7physics9RigidBody17createDefaultBodyEv @2642
    _ZN2sp7physics9RigidBody21createChamferCylinderERKNS0_22SRigidBodyConstructionE @2643
    _ZN2sp7physics9RigidBody7setMassEf @2644
    _ZN2sp7physics9RigidBody8addJointEPNS0_18PhysicsBasicObjectENS0_11EBodyJointsERKNS_3dim8vector3dIfEES9_S9_ @2645
    _ZN2sp7physics9RigidBody8setForceERKNS_3dim8vector3dIfEE @2646
    _ZN2sp7physics9RigidBody9createBoxERKNS0_22SRigidBodyConstructionE @2647
    _ZN2sp7physics9RigidBodyC1ENS0_12ERigidBodiesERKNS0_22SRigidBodyConstructionE @2648
    _ZN2sp7physics9RigidBodyC1EPNS_5scene4MeshE @2649
    _ZN2sp7physics9RigidBodyC2ENS0_12ERigidBodiesERKNS0_22SRigidBodyConstructionE @2650
    _ZN2sp7physics9RigidBodyC2EPNS_5scene4MeshE @2651
    _ZN2sp7physics9RigidBodyD0Ev @2652
    _ZN2sp7physics9RigidBodyD1Ev @2653
    _ZN2sp7physics9RigidBodyD2Ev @2654
    _ZNK2sp13ThreadManager7runningEv @2655
    _ZNK2sp15SoftPixelDevice10getVersionEv @2656
    _ZNK2sp15SoftPixelDevice13getFileSystemEv @2657
    _ZNK2sp15SoftPixelDevice13getGUIManagerEv @2658
    _ZNK2sp15SoftPixelDevice13getSceneGraphENS_5scene12ESceneGraphsE @2659
    _ZNK2sp15SoftPixelDevice13getWindowSizeEv @2660
    _ZNK2sp15SoftPixelDevice14getSoundDeviceENS_5audio13ESoundDevicesE @2661
    _ZNK2sp15SoftPixelDevice14getWindowTitleEv @2662
    _ZNK2sp15SoftPixelDevice14isWindowActiveEv @2663
    _ZNK2sp15SoftPixelDevice15getInputControlEv @2664
    _ZNK2sp15SoftPixelDevice15getOSInformatorEv @2665
    _ZNK2sp15SoftPixelDevice15getRenderSystemEv @2666
    _ZNK2sp15SoftPixelDevice15getUserCharListEv @2667
    _ZNK2sp15SoftPixelDevice16getRenderContextEv @2668
    _ZNK2sp15SoftPixelDevice17checkRenderSystemENS_5video14ERenderSystemsE @2669
    _ZNK2sp15SoftPixelDevice17createSoundDeviceENS_5audio13ESoundDevicesE @2670
    _ZNK2sp15SoftPixelDevice17getWindowPositionEv @2671
    _ZNK2sp15SoftPixelDevice19getActiveSceneGraphEv @2672
    _ZNK2sp15SoftPixelDevice20getCollisionDetectorEv @2673
    _ZNK2sp20SoftPixelDeviceWin3213getWindowSizeEv @2674
    _ZNK2sp20SoftPixelDeviceWin3214getWindowTitleEv @2675
    _ZNK2sp20SoftPixelDeviceWin3214isWindowActiveEv @2676
    _ZNK2sp20SoftPixelDeviceWin3215getUserCharListEv @2677
    _ZNK2sp20SoftPixelDeviceWin3217getWindowPositionEv @2678
    _ZNK2sp2io10FileSystem11getFileSizeERKNS0_6stringIcEE @2679
    _ZNK2sp2io10FileSystem19getCurrentDirectoryEv @2680
    _ZNK2sp2io10FileSystem8findFileERKNS0_6stringIcEE @2681
    _ZNK2sp2io12InputControl12joystickDownENS0_17EJoystickKeyCodesE @2682
    _ZNK2sp2io12InputControl13getMouseWheelEv @2683
    _ZNK2sp2io12InputControl17getCursorPositionEv @2684
    _ZNK2sp2io12InputControl17keyDownSimulationENS0_9EKeyCodesE @2685
    _ZNK2sp2io12InputControl19getJoystickPositionEv @2686
    _ZNK2sp2io12InputControl19mouseDownSimulationENS0_14EMouseKeyCodesE @2687
    _ZNK2sp2io12InputControl21keyReleasedSimulationENS0_9EKeyCodesE @2688
    _ZNK2sp2io12InputControl23mouseReleasedSimulationENS0_14EMouseKeyCodesE @2689
    _ZNK2sp2io12InputControl9keyDownExENS0_9EKeyCodesE @2690
    _ZNK2sp2io12OSInformator12getDiskSpaceENS0_6stringIcEERjS4_ @2691
    _ZNK2sp2io12OSInformator16getClipboardTextEv @2692
    _ZNK2sp2io12OSInformator16getVirtualMemoryERmS2_i @2693
    _ZNK2sp2io12OSInformator17getProcessorSpeedEv @2694
    _ZNK2sp2io12OSInformator18getCompilationInfoEv @2695
    _ZNK2sp2io12OSInformator18getCompilerVersionEv @2696
    _ZNK2sp2io4File10readStringEb @2697
    _ZNK2sp2io4File10readStringEi @2698
    _ZNK2sp2io4File11readStringCEv @2699
    _ZNK2sp2io4File14readStringDataEv @2700
    _ZNK2sp2io4File9readColorEv @2701
    _ZNK2sp2io7FileHDD10readBufferEPvjj @2702
    _ZNK2sp2io7FileHDD5isEOFEv @2703
    _ZNK2sp2io7FileHDD6openedEv @2704
    _ZNK2sp2io7FileHDD7getSeekEv @2705
    _ZNK2sp2io7FileHDD7getSizeEv @2706
    _ZNK2sp2io7FileRAM10readBufferEPvjj @2707
    _ZNK2sp2io7FileRAM5isEOFEv @2708
    _ZNK2sp2io7FileRAM6openedEv @2709
    _ZNK2sp2io7FileRAM7getSeekEv @2710
    _ZNK2sp2io7FileRAM7getSizeEv @2711
    _ZNK2sp3gui10GUIManager10getVersionEv @2712
    _ZNK2sp3gui11GUIMenuItem12getTextWidthEv @2713
    _ZNK2sp3gui11GUIMenuItem14anyChildExpandEv @2714
    _ZNK2sp3gui11GUIMenuItem14getExTextWidthEv @2715
    _ZNK2sp3gui11GUIMenuItem7getTextEv @2716
    _ZNK2sp3gui12GUIWebGadget11getHexColorERKNS_2io6stringIcEE @2717
    _ZNK2sp3gui12GUIWebGadget15getHexComponentEcc @2718
    _ZNK2sp3gui12GUIWebGadget16getLocalViewAreaEPKNS0_13GUIControllerE @2719
    _ZNK2sp3gui13GUIController11getPositionEb @2720
    _ZNK2sp3gui13GUIController11getViewAreaEPKS1_ @2721
    _ZNK2sp3gui13GUIController12foreignUsageEv @2722
    _ZNK2sp3gui13GUIController13checkClippingEv @2723
    _ZNK2sp3gui13GUIController13getViewOriginEv @2724
    _ZNK2sp3gui13GUIController16getLocalViewAreaEPKS1_ @2725
    _ZNK2sp3gui13GUIController17getParentViewAreaEv @2726
    _ZNK2sp3gui13GUIController17getScrollPositionEb @2727
    _ZNK2sp3gui13GUIController5usageEi @2728
    _ZNK2sp3gui13GUIController5usageEv @2729
    _ZNK2sp3gui13GUIController7getRectEb @2730
    _ZNK2sp3gui13GUIController8hasFocusEv @2731
    _ZNK2sp3gui13GUIListGadget16getItemsStartPosEv @2732
    _ZNK2sp3gui13GUIListGadget16getLocalViewAreaEPKNS0_13GUIControllerE @2733
    _ZNK2sp3gui13GUITreeGadget16getItemsStartPosEv @2734
    _ZNK2sp3gui13GUITreeGadget19getExplorerFullPathEPKNS0_11GUITreeItemE @2735
    _ZNK2sp3gui14GUIBasicObject10mouseRightEv @2736
    _ZNK2sp3gui14GUIBasicObject11mouseLeftUpEv @2737
    _ZNK2sp3gui14GUIBasicObject12mouseRightUpEv @2738
    _ZNK2sp3gui14GUIBasicObject13mouseLeftDownEv @2739
    _ZNK2sp3gui14GUIBasicObject14mouseRightDownEv @2740
    _ZNK2sp3gui14GUIBasicObject5getIDEv @2741
    _ZNK2sp3gui14GUIBasicObject7getFontEv @2742
    _ZNK2sp3gui14GUIBasicObject7getTextEv @2743
    _ZNK2sp3gui14GUIBasicObject8getColorEv @2744
    _ZNK2sp3gui14GUIBasicObject9getEnableEv @2745
    _ZNK2sp3gui14GUIBasicObject9mouseLeftEv @2746
    _ZNK2sp3gui14GUIBasicObject9mouseOverERKNS_3dim6rect2dIiEE @2747
    _ZNK2sp3gui15GUIStringGadget11isValidCharEc @2748
    _ZNK2sp3gui15GUIStringGadget12getSelectionERiS2_ @2749
    _ZNK2sp3gui15GUIStringGadget12getStringLenEj @2750
    _ZNK2sp3gui15GUIStringGadget12getStringLenEjj @2751
    _ZNK2sp3gui15GUIStringGadget17getCursorPositionEi @2752
    _ZNK2sp3gui17GUITrackbarGadget15getTrackBarRectEv @2753
    _ZNK2sp3gui18GUIScrollbarGadget14getButtonRectsERNS_3dim6rect2dIiEES5_S5_S5_S5_ @2754
    _ZNK2sp3gui9GUIWindow13getViewOriginEv @2755
    _ZNK2sp3gui9GUIWindow16getLocalViewAreaEPKNS0_13GUIControllerE @2756
    _ZNK2sp4Node10getVisibleEv @2757
    _ZNK2sp4Node11getChildrenEv @2758
    _ZNK2sp4Node7getNameEv @2759
    _ZNK2sp4Node9getParentEv @2760
    _ZNK2sp4math11ViewFrustum10getRightUpEv @2761
    _ZNK2sp4math11ViewFrustum11getLeftDownEv @2762
    _ZNK2sp4math11ViewFrustum12getRightDownEv @2763
    _ZNK2sp4math11ViewFrustum13isPointInsideERKNS_3dim8vector3dIfEEf @2764
    _ZNK2sp4math11ViewFrustum16isBoundBoxInsideERKNS_3dim8aabbox3dIfEERKNS2_7matrix4IfEE @2765
    _ZNK2sp4math11ViewFrustum9getLeftUpEv @2766
    _ZNK2sp4tool12ScriptLoader10getVersionEv @2767
    _ZNK2sp4tool12ScriptLoader10readStringERNS_2io6stringIcEEi @2768
    _ZNK2sp4tool12ScriptLoader12printErrorLIERKNS_2io6stringIcEE @2769
    _ZNK2sp4tool12ScriptLoader14printWarningLIERKNS_2io6stringIcEE @2770
    _ZNK2sp4tool12ScriptLoader15readNextCommandEi @2771
    _ZNK2sp4tool12ScriptLoader16getLinesIndicateEv @2772
    _ZNK2sp4tool12ScriptLoader8checkEOFEv @2773
    _ZNK2sp4tool8PathNode12getNeighborsEv @2774
    _ZNK2sp4tool9XMLParser12printErrorLIERKNS_2io6stringIcEE @2775
    _ZNK2sp4tool9XMLParser14printWarningLIERKNS_2io6stringIcEE @2776
    _ZNK2sp4tool9XMLParser15getNextTokenPosERKNS_2io6stringIcEEj @2777
    _ZNK2sp4tool9XMLParser16getLinesIndicateEv @2778
    _ZNK2sp5audio10DummySound5validEv @2779
    _ZNK2sp5audio10DummySound7getSeekEv @2780
    _ZNK2sp5audio10DummySound9getLengthEv @2781
    _ZNK2sp5audio10WinMMSound5validEv @2782
    _ZNK2sp5audio10WinMMSound7getSeekEv @2783
    _ZNK2sp5audio10WinMMSound9getLengthEv @2784
    _ZNK2sp5audio11SoundDevice10getVersionEv @2785
    _ZNK2sp5audio11SoundDevice12getInterfaceEv @2786
    _ZNK2sp5audio11SoundDevice16getListenerRangeERfS2_S2_S2_ @2787
    _ZNK2sp5audio16DummySoundDevice12getInterfaceEv @2788
    _ZNK2sp5audio16WinMMSoundDevice12getInterfaceEv @2789
    _ZNK2sp5audio5Sound9checkFileERKNS_2io6stringIcEE @2790
    _ZNK2sp5scene10KDTreeNode10isLeafNodeEv @2791
    _ZNK2sp5scene10KDTreeNode12findTreeNodeERKNS_3dim8vector3dIfEE @2792
    _ZNK2sp5scene10OcTreeNode10isLeafNodeEv @2793
    _ZNK2sp5scene10OcTreeNode13findTreeNodesERSt4listIPKS1_SaIS4_EERKNS_3dim6line3dIfEE @2794
    _ZNK2sp5scene10OcTreeNode13findTreeNodesERSt4listIPKS1_SaIS4_EERKNS_3dim8vector3dIfEE @2795
    _ZNK2sp5scene10OcTreeNode13findTreeNodesERSt4listIPKS1_SaIS4_EERKNS_3dim8vector3dIfEESC_ @2796
    _ZNK2sp5scene10OcTreeNode17getPositionOffsetENS_3dim8vector3dIfEERKS4_S6_i @2797
    _ZNK2sp5scene10SceneGraph11getLightingEv @2798
    _ZNK2sp5scene10SceneGraph11getMeshListEv @2799
    _ZNK2sp5scene10SceneGraph11getNodeListEv @2800
    _ZNK2sp5scene10SceneGraph12findChildrenEPKNS0_9SceneNodeE @2801
    _ZNK2sp5scene10SceneGraph12getLightListEv @2802
    _ZNK2sp5scene10SceneGraph13getCameraListEv @2803
    _ZNK2sp5scene10SceneGraph14findNodeInListINS0_10RenderNodeEEEPNS0_9SceneNodeERKNS_2io6stringIcEERKSt4listIPT_SaISD_EE @2804
    _ZNK2sp5scene10SceneGraph14getTerrainListEv @2805
    _ZNK2sp5scene10SceneGraph15findChildInListINS0_10RenderNodeEEEPNS0_9SceneNodeEPKS4_RKSt4listIPT_SaISA_EERKNS_2io6stringIcEE @2806
    _ZNK2sp5scene10SceneGraph16getAnimationListEv @2807
    _ZNK2sp5scene10SceneGraph16getBillboardListEv @2808
    _ZNK2sp5scene10SceneGraph17getMeshFileFormatERKNS_2io6stringIcEENS0_16EMeshFileFormatsE @2809
    _ZNK2sp5scene10SceneGraph18getSceneFileFormatERKNS_2io6stringIcEENS0_17ESceneFileFormatsE @2810
    _ZNK2sp5scene10SceneGraph19getSceneVertexCountEv @2811
    _ZNK2sp5scene10SceneGraph20getSceneObjectsCountEv @2812
    _ZNK2sp5scene10SceneGraph21getSceneTriangleCountEv @2813
    _ZNK2sp5scene10SceneGraph8findNodeERKNS_2io6stringIcEE @2814
    _ZNK2sp5scene10SceneGraph9findChildEPKNS0_9SceneNodeERKNS_2io6stringIcEE @2815
    _ZNK2sp5scene10SceneGraph9findNodesERKNS_2io6stringIcEE @2816
    _ZNK2sp5scene11BSPTreeNode10isLeafNodeEv @2817
    _ZNK2sp5scene11BSPTreeNode13findTreeNodesERSt4listIPKS1_SaIS4_EERKNS_3dim8vector3dIfEE @2818
    _ZNK2sp5scene11BSPTreeNode13findTreeNodesERSt4listIPKS1_SaIS4_EERKNS_3dim8vector3dIfEEf @2819
    _ZNK2sp5scene11MeshLoaderX12printErrorLIERKNS_2io6stringIcEE @2820
    _ZNK2sp5scene11MeshLoaderX14printWarningLIERKNS_2io6stringIcEE @2821
    _ZNK2sp5scene11MeshLoaderX16getLinesIndicateEv @2822
    _ZNK2sp5scene11MeshLoaderX16readNextTokenBinEv @2823
    _ZNK2sp5scene11MeshLoaderX17findBreakTokenTxtEv @2824
    _ZNK2sp5scene11MeshLoaderX22getTemplateMemberColorERKNS1_16STemplateMemberXE @2825
    _ZNK2sp5scene11MeshLoaderX25getTemplateMemberMaterialEPKNS1_10STemplateXE @2826
    _ZNK2sp5scene11MeshLoaderX29getTemplateMemberAnimationKeyERKNS1_16STemplateMemberXEjPfRi @2827
    _ZNK2sp5scene12MeshSaverSPM19areIndex32BitNeededEv @2828
    _ZNK2sp5scene12MeshSaverSPM20areVertexColorsEqualEv @2829
    _ZNK2sp5scene12MeshSaverSPM23areVertexFogCoordsEqualEv @2830
    _ZNK2sp5scene12QuadTreeNode10isLeafNodeEv @2831
    _ZNK2sp5scene12QuadTreeNode13findTreeNodesERSt4listIPKS1_SaIS4_EERKNS_3dim7point2dIfEE @2832
    _ZNK2sp5scene12QuadTreeNode13findTreeNodesERSt4listIPKS1_SaIS4_EERKNS_3dim7point2dIfEERKNS8_6size2dIfEE @2833
    _ZNK2sp5scene13AnimationBone11getKeyframeEj @2834
    _ZNK2sp5scene13AnimationBone17getGlobalLocationEv @2835
    _ZNK2sp5scene13AnimationBone20updateTransformationERNS_3dim7matrix4IfEEb @2836
    _ZNK2sp5scene13AnimationBone7getSeekEv @2837
    _ZNK2sp5scene13AnimationNode11getSequenceEj @2838
    _ZNK2sp5scene13AnimationNode18getSplineExpansionEv @2839
    _ZNK2sp5scene13AnimationNode20getSplineTranslationEv @2840
    _ZNK2sp5scene13AnimationNode4copyEPNS0_9SceneNodeE @2841
    _ZNK2sp5scene13AnimationNode9getLengthEv @2842
    _ZNK2sp5scene15SceneLoaderSPSB10readStringEv @2843
    _ZNK2sp5scene15SceneLoaderSPSB15getAbsolutePathERKNS_2io6stringIcEE @2844
    _ZNK2sp5scene15SceneLoaderSPSB9readValueIjEET_v @2845
    _ZNK2sp5scene17AnimationSkeletal14renderSkeletonEfb @2846
    _ZNK2sp5scene17AnimationSkeletal19checkFrustumCullingEv @2847
    _ZNK2sp5scene17AnimationSkeletal20renderBoneConnectionERKNS_3dim7matrix4IfEEb @2848
    _ZNK2sp5scene17AnimationSkeletal4copyEPNS0_9SceneNodeE @2849
    _ZNK2sp5scene17AnimationSkeletal7getBoneEj @2850
    _ZNK2sp5scene17AnimationSkeletal7getSeekERiRf @2851
    _ZNK2sp5scene17AnimationSkeletal7getSeekEv @2852
    _ZNK2sp5scene17AnimationSkeletal9getLengthEv @2853
    _ZNK2sp5scene20AnimationMorphTarget11getSequenceEj @2854
    _ZNK2sp5scene20AnimationMorphTarget16getVertexWeightsEv @2855
    _ZNK2sp5scene20AnimationMorphTarget4copyEPNS0_9SceneNodeE @2856
    _ZNK2sp5scene20AnimationMorphTarget9getLengthEv @2857
    _ZNK2sp5scene4Mesh14getTextureListEv @2858
    _ZNK2sp5scene4Mesh14getVertexCountEv @2859
    _ZNK2sp5scene4Mesh15getTextureCountEv @2860
    _ZNK2sp5scene4Mesh16getTriangleCountEv @2861
    _ZNK2sp5scene4Mesh18getMeshBoundingBoxERNS_3dim8vector3dIfEES5_ @2862
    _ZNK2sp5scene4Mesh18getMeshBoundingBoxEv @2863
    _ZNK2sp5scene4Mesh19checkFrustumCullingERKNS_4math11ViewFrustumERKNS_3dim7matrix4IfEE @2864
    _ZNK2sp5scene4Mesh21getMeshBoundingSphereEv @2865
    _ZNK2sp5scene4Mesh4copyEv @2866
    _ZNK2sp5scene4Mesh8copyMeshEPS1_ @2867
    _ZNK2sp5scene5Light11getSpotConeERfS2_ @2868
    _ZNK2sp5scene5Light16getLightingColorERNS_5video5colorES4_S4_ @2869
    _ZNK2sp5scene5Light18getVolumetricRangeERfS2_S2_ @2870
    _ZNK2sp5scene5Light19getVolumetricRadiusEv @2871
    _ZNK2sp5scene5Light4copyEv @2872
    _ZNK2sp5scene6Camera13getProjectionENS_3dim8vector3dIfEE @2873
    _ZNK2sp5scene6Camera14getPickingLineERKNS_3dim7point2dIiEEf @2874
    _ZNK2sp5scene6Camera4copyEv @2875
    _ZNK2sp5scene8TreeNode8getLevelEv @2876
    _ZNK2sp5scene9Animation7getSeekERiRf @2877
    _ZNK2sp5scene9Animation7getSeekEv @2878
    _ZNK2sp5scene9Animation8copyRootEPS1_ @2879
    _ZNK2sp5scene9Animation9getLengthEv @2880
    _ZNK2sp5scene9Billboard4copyEv @2881
    _ZNK2sp5scene9SceneNode10getVisibleEb @2882
    _ZNK2sp5scene9SceneNode11getPositionEb @2883
    _ZNK2sp5scene9SceneNode11getRotationEb @2884
    _ZNK2sp5scene9SceneNode12getAnimationENS_2io6stringIcEE @2885
    _ZNK2sp5scene9SceneNode12getAnimationEj @2886
    _ZNK2sp5scene9SceneNode12getDirectionERKNS_3dim8vector3dIfEE @2887
    _ZNK2sp5scene9SceneNode12updateParentEv @2888
    _ZNK2sp5scene9SceneNode14getBoundingBoxEv @2889
    _ZNK2sp5scene9SceneNode14getScaleMatrixEb @2890
    _ZNK2sp5scene9SceneNode14getScaleMatrixEv @2891
    _ZNK2sp5scene9SceneNode15getBoundingTypeEv @2892
    _ZNK2sp5scene9SceneNode16getLocalLocationEv @2893
    _ZNK2sp5scene9SceneNode17getBoundingSphereEv @2894
    _ZNK2sp5scene9SceneNode17getGlobalLocationEv @2895
    _ZNK2sp5scene9SceneNode17getPositionMatrixEb @2896
    _ZNK2sp5scene9SceneNode17getPositionMatrixEv @2897
    _ZNK2sp5scene9SceneNode17getRotationMatrixEb @2898
    _ZNK2sp5scene9SceneNode17getRotationMatrixEv @2899
    _ZNK2sp5scene9SceneNode19updateLocalLocationEv @2900
    _ZNK2sp5scene9SceneNode20updateGlobalLocationEv @2901
    _ZNK2sp5scene9SceneNode23getLocalLocationInverseEv @2902
    _ZNK2sp5scene9SceneNode24getGlobalLocationInverseEv @2903
    _ZNK2sp5scene9SceneNode26updateLocalLocationInverseEv @2904
    _ZNK2sp5scene9SceneNode27updateGlobalLocationInverseEv @2905
    _ZNK2sp5scene9SceneNode4copyEv @2906
    _ZNK2sp5scene9SceneNode7getTypeEv @2907
    _ZNK2sp5scene9SceneNode8copyRootEPS1_ @2908
    _ZNK2sp5scene9SceneNode8getScaleEb @2909
    _ZNK2sp5scene9SceneNode9getMatrixEv @2910
    _ZNK2sp5scene9SceneNode9getParentEv @2911
    _ZNK2sp5video10MeshBuffer10getTextureEh @2912
    _ZNK2sp5video10MeshBuffer10renderableEv @2913
    _ZNK2sp5video10MeshBuffer11getTriangleEj @2914
    _ZNK2sp5video10MeshBuffer12getReferenceEv @2915
    _ZNK2sp5video10MeshBuffer12getVertexFogEj @2916
    _ZNK2sp5video10MeshBuffer13getIdentifierEv @2917
    _ZNK2sp5video10MeshBuffer13getMappingGenEh @2918
    _ZNK2sp5video10MeshBuffer13getTextureEnvEh @2919
    _ZNK2sp5video10MeshBuffer14getTextureListEv @2920
    _ZNK2sp5video10MeshBuffer14getVertexColorEj @2921
    _ZNK2sp5video10MeshBuffer14getVertexCoordEj @2922
    _ZNK2sp5video10MeshBuffer15getVertexNormalEj @2923
    _ZNK2sp5video10MeshBuffer16getPrimitiveSizeEv @2924
    _ZNK2sp5video10MeshBuffer16getTextureMatrixEh @2925
    _ZNK2sp5video10MeshBuffer16getTriangleCountEv @2926
    _ZNK2sp5video10MeshBuffer16getVertexTangentEj @2927
    _ZNK2sp5video10MeshBuffer17getPrimitiveIndexEj @2928
    _ZNK2sp5video10MeshBuffer17getSurfaceTextureEh @2929
    _ZNK2sp5video10MeshBuffer17getTriangleCoordsEj @2930
    _ZNK2sp5video10MeshBuffer17getVertexBinormalEj @2931
    _ZNK2sp5video10MeshBuffer17getVertexTexCoordEjh @2932
    _ZNK2sp5video10MeshBuffer18getTriangleIndicesEjRA3_j @2933
    _ZNK2sp5video10MeshBuffer19getMappingGenCoordsEh @2934
    _ZNK2sp5video10MeshBuffer20getTriangleReferenceEj @2935
    _ZNK2sp5video10MeshBuffer25getDefaultVertexAttributeINS_3dim8vector3dIfEEfEET_NS0_18ERendererDataTypesEijRKNS0_16SVertexAttributeE @2936
    _ZNK2sp5video10MeshBuffer9getVertexEj @2937
    _ZNK2sp5video11ImageBuffer13getPixelColorERKNS_3dim7point2dIiEE @2938
    _ZNK2sp5video11ImageBuffer14allocRawBufferERPvj @2939
    _ZNK2sp5video11ImageBuffer15getDataTypeSizeEv @2940
    _ZNK2sp5video12RenderSystem11getFogColorEv @2941
    _ZNK2sp5video12RenderSystem13getCharWidthsEPv @2942
    _ZNK2sp5video12RenderSystem13getPixelColorERKNS_3dim7point2dIiEE @2943
    _ZNK2sp5video12RenderSystem13getPixelDepthERKNS_3dim7point2dIiEE @2944
    _ZNK2sp5video12RenderSystem13getViewMatrixEv @2945
    _ZNK2sp5video12RenderSystem14getColorMatrixEv @2946
    _ZNK2sp5video12RenderSystem14getWorldMatrixEv @2947
    _ZNK2sp5video12RenderSystem15getRenderTargetEv @2948
    _ZNK2sp5video12RenderSystem16createDeviceFontEPvRKNS_2io6stringIcEERKNS_3dim6size2dIiEEbbbbb @2949
    _ZNK2sp5video12RenderSystem16getDeviceContextEv @2950
    _ZNK2sp5video12RenderSystem16getTextureMatrixEh @2951
    _ZNK2sp5video12RenderSystem18getImageFileFormatERKNS_2io6stringIcEE @2952
    _ZNK2sp5video12RenderSystem19getProjectionMatrixEv @2953
    _ZNK2sp5video12RenderSystem21queryExtensionSupportERKNS_2io6stringIcEE @2954
    _ZNK2sp5video12RenderSystem23getProjectionMatrixTypeEv @2955
    _ZNK2sp5video12RenderSystem6getFogEv @2956
    _ZNK2sp5video12RenderSystem9isTextureEPKNS0_7TextureE @2957
    _ZNK2sp5video12VertexFormat13getFormatSizeERj @2958
    _ZNK2sp5video12VertexFormat13getFormatSizeEv @2959
    _ZNK2sp5video12VertexFormat13getIdentifierEv @2960
    _ZNK2sp5video12VertexFormat22addComponentFormatSizeERjRKNS0_16SVertexAttributeE @2961
    _ZNK2sp5video13GLTextureBase4bindEi @2962
    _ZNK2sp5video13GLTextureBase5validEv @2963
    _ZNK2sp5video13GLTextureBase6unbindEi @2964
    _ZNK2sp5video14GLBasePipeline10getVersionEv @2965
    _ZNK2sp5video14GLBasePipeline11getRendererEv @2966
    _ZNK2sp5video14GLBasePipeline13getViewMatrixEv @2967
    _ZNK2sp5video14GLBasePipeline16getShaderVersionEv @2968
    _ZNK2sp5video14GLBasePipeline21queryExtensionSupportERKNS_2io6stringIcEE @2969
    _ZNK2sp5video14GLBasePipeline23getMaxAnisotropicFilterEv @2970
    _ZNK2sp5video14GLBasePipeline23getProjectionMatrixTypeEv @2971
    _ZNK2sp5video14GLBasePipeline9getVendorEv @2972
    _ZNK2sp5video14ImageLoaderDDS12get4BitAlphaERj @2973
    _ZNK2sp5video14ImageLoaderDDS13get16BitColorEt @2974
    _ZNK2sp5video14ImageLoaderDDS14calcColorProc1Eii @2975
    _ZNK2sp5video14ImageLoaderDDS14calcColorProc2Eii @2976
    _ZNK2sp5video14ImageLoaderDDS20getInterpolatedColorERKNS0_5colorES4_ @2977
    _ZNK2sp5video14MaterialStates7compareEPKS1_ @2978
    _ZNK2sp5video15CgShaderContext10getVersionEv @2979
    _ZNK2sp5video16Direct3D9Texture13getFormatSizeENS0_13EPixelFormatsE @2980
    _ZNK2sp5video16Direct3D9Texture4bindEi @2981
    _ZNK2sp5video16Direct3D9Texture5validEv @2982
    _ZNK2sp5video16Direct3D9Texture6unbindEi @2983
    _ZNK2sp5video16VertexFormatFull13getFormatSizeEv @2984
    _ZNK2sp5video17DummyRenderSystem10getVersionEv @2985
    _ZNK2sp5video17DummyRenderSystem11getRendererEv @2986
    _ZNK2sp5video17DummyRenderSystem14getRenderStateENS0_13ERenderStatesE @2987
    _ZNK2sp5video17DummyRenderSystem16getMaxLightCountEv @2988
    _ZNK2sp5video17DummyRenderSystem16getMultitexCountEv @2989
    _ZNK2sp5video17DummyRenderSystem16getShaderVersionEv @2990
    _ZNK2sp5video17DummyRenderSystem17queryVideoSupportENS0_20EVideoFeatureQueriesE @2991
    _ZNK2sp5video17DummyRenderSystem23getMaxAnisotropicFilterEv @2992
    _ZNK2sp5video17DummyRenderSystem9getVendorEv @2993
    _ZNK2sp5video17SHeightMapTexture14getHeightValueERKNS_3dim7point2dIfEE @2994
    _ZNK2sp5video17SHeightMapTexture9getNormalERKNS_3dim7point2dIfEES6_ @2995
    _ZNK2sp5video18OpenGLRenderSystem13getPixelDepthERKNS_3dim7point2dIiEE @2996
    _ZNK2sp5video18OpenGLRenderSystem17queryVideoSupportENS0_20EVideoFeatureQueriesE @2997
    _ZNK2sp5video19VertexFormatDefault13getFormatSizeEv @2998
    _ZNK2sp5video19VertexFormatReduced13getFormatSizeEv @2999
    _ZNK2sp5video20DesktopRenderContext14getWindowStyleEv @3000
    _ZNK2sp5video20DesktopRenderContext18getWindowDimensionERNS_3dim7point2dIiEERNS2_6size2dIiEE @3001
    _ZNK2sp5video20VertexFormatExtended13getFormatSizeEv @3002
    _ZNK2sp5video21Direct3D9RenderSystem10getVersionEv @3003
    _ZNK2sp5video21Direct3D9RenderSystem11getRendererEv @3004
    _ZNK2sp5video21Direct3D9RenderSystem13getPixelColorERKNS_3dim7point2dIiEE @3005
    _ZNK2sp5video21Direct3D9RenderSystem13getPixelDepthERKNS_3dim7point2dIiEE @3006
    _ZNK2sp5video21Direct3D9RenderSystem14getRenderStateENS0_13ERenderStatesE @3007
    _ZNK2sp5video21Direct3D9RenderSystem16getMaxLightCountEv @3008
    _ZNK2sp5video21Direct3D9RenderSystem16getMultitexCountEv @3009
    _ZNK2sp5video21Direct3D9RenderSystem16getShaderVersionEv @3010
    _ZNK2sp5video21Direct3D9RenderSystem17queryVideoSupportENS0_20EVideoFeatureQueriesE @3011
    _ZNK2sp5video21Direct3D9RenderSystem23getMaxAnisotropicFilterEv @3012
    _ZNK2sp5video21Direct3D9RenderSystem9getVendorEv @3013
    _ZNK2sp5video21VertexFormatUniversal13getFormatSizeEv @3014
    _ZNK2sp5video23GLFixedFunctionPipeline13getPixelColorERKNS_3dim7point2dIiEE @3015
    _ZNK2sp5video23GLFixedFunctionPipeline14getRenderStateENS0_13ERenderStatesE @3016
    _ZNK2sp5video23GLFixedFunctionPipeline16getMaxLightCountEv @3017
    _ZNK2sp5video23GLFixedFunctionPipeline16getMultitexCountEv @3018
    _ZNK2sp5video30GLProgrammableFunctionPipeline16getShaderVersionEv @3019
    _ZNK2sp5video4Font14getStringWidthERKNS_2io6stringIcEE @3020
    _ZNK2sp5video4Font15getStringHeightERKNS_2io6stringIcEE @3021
    _ZNK2sp5video5Movie5validEv @3022
    _ZNK2sp5video5Movie6finishEv @3023
    _ZNK2sp5video5Movie7getSeekEv @3024
    _ZNK2sp5video5Movie7getSizeEv @3025
    _ZNK2sp5video5Movie8getSpeedEv @3026
    _ZNK2sp5video5Movie9getLengthEv @3027
    _ZNK2sp5video7Texture10getSizePOTEv @3028
    _ZNK2sp5video7Texture13getFormatSizeENS0_13EPixelFormatsE @3029
    _ZNK2sp5video7Texture13getMipMappingEv @3030
    _ZNK2sp5video7Texture13getPixelColorERKNS_3dim7point2dIfEE @3031
    _ZNK2sp5video7Texture13getPixelColorERKNS_3dim7point2dIiEE @3032
    _ZNK2sp5video7Texture21getMultiRenderTargetsEv @3033
    _ZNK2sp5video7Texture4bindEi @3034
    _ZNK2sp5video7Texture5validEv @3035
    _ZNK2sp5video7Texture6unbindEi @3036
    _ZNK2sp5video7Texture9isSizePOTEv @3037
    _ZNK2sp7network13NetworkSystem10getVersionEv @3038
    _ZNK2sp7network13NetworkSystem16getHostIPAddressERKNS_2io6stringIcEE @3039
    _ZNK2sp7network13NetworkSystem17getNetworkMembersEv @3040
    _ZNK2sp7network13NetworkSystem19getOfficialHostNameERKNS_2io6stringIcEE @3041
    _ZNK2sp7network13NetworkSystem20getHostIPAddressListERKNS_2io6stringIcEE @3042
    _ZNK2sp7network14NetworkAddress16getIPAddressNameEv @3043
    _ZNK2sp7physics13PhysicsSystem10getVersionEv @3044
    _ZNK2sp7physics13PhysicsSystem14getThreadCountEv @3045
    _ZNK2sp7physics18PhysicsBasicObject11getPositionEv @3046
    _ZNK2sp7physics18PhysicsBasicObject11getRotationEv @3047
    _ZNK2sp7physics18PhysicsBasicObject17getTransformationEv @3048
    _ZNK2sp7physics9RigidBody11getVelocityEv @3049
    _ZNK2sp7physics9RigidBody15getBalancePointEv @3050
    _ZTCN2sp5video18OpenGLRenderSystemE0_NS0_23GLFixedFunctionPipelineE @3051 DATA
    _ZTCN2sp5video18OpenGLRenderSystemE228_NS0_30GLProgrammableFunctionPipelineE @3052 DATA
    _ZTCN2sp5video18OpenGLRenderSystemE236_NS0_14GLBasePipelineE @3053 DATA
    _ZTCN2sp5video23GLFixedFunctionPipelineE228_NS0_14GLBasePipelineE @3054 DATA
    _ZTCN2sp5video30GLProgrammableFunctionPipelineE4_NS0_14GLBasePipelineE @3055 DATA
    _ZTTN2sp5video14GLBasePipelineE @3056 DATA
    _ZTTN2sp5video18OpenGLRenderSystemE @3057 DATA
    _ZTTN2sp5video23GLFixedFunctionPipelineE @3058 DATA
    _ZTTN2sp5video30GLProgrammableFunctionPipelineE @3059 DATA
    _ZTVN2sp11BasicObjectE @3060 DATA
    _ZTVN2sp15SoftPixelDeviceE @3061 DATA
    _ZTVN2sp20SoftPixelDeviceWin32E @3062 DATA
    _ZTVN2sp2io21BaseFileFormatHandlerE @3063 DATA
    _ZTVN2sp2io4FileE @3064 DATA
    _ZTVN2sp2io7FileHDDE @3065 DATA
    _ZTVN2sp2io7FileRAME @3066 DATA
    _ZTVN2sp3gui11GUIListItemE @3067 DATA
    _ZTVN2sp3gui11GUIMenuItemE @3068 DATA
    _ZTVN2sp3gui12GUIWebGadgetE @3069 DATA
    _ZTVN2sp3gui13GUIControllerE @3070 DATA
    _ZTVN2sp3gui13GUIListColumnE @3071 DATA
    _ZTVN2sp3gui13GUIListGadgetE @3072 DATA
    _ZTVN2sp3gui13GUITextGadgetE @3073 DATA
    _ZTVN2sp3gui13GUITreeGadgetE @3074 DATA
    _ZTVN2sp3gui14GUIBasicObjectE @3075 DATA
    _ZTVN2sp3gui15GUIButtonGadgetE @3076 DATA
    _ZTVN2sp3gui15GUIStringGadgetE @3077 DATA
    _ZTVN2sp3gui16GUIListRootEntryE @3078 DATA
    _ZTVN2sp3gui17GUICheckboxGadgetE @3079 DATA
    _ZTVN2sp3gui17GUITrackbarGadgetE @3080 DATA
    _ZTVN2sp3gui18GUIContainerGadgetE @3081 DATA
    _ZTVN2sp3gui18GUIScrollbarGadgetE @3082 DATA
    _ZTVN2sp3gui20GUIProgressbarGadgetE @3083 DATA
    _ZTVN2sp3gui9GUIGadgetE @3084 DATA
    _ZTVN2sp3gui9GUIWindowE @3085 DATA
    _ZTVN2sp4NodeE @3086 DATA
    _ZTVN2sp4tool12ScriptLoaderE @3087 DATA
    _ZTVN2sp4tool16ParticleAnimatorE @3088 DATA
    _ZTVN2sp4tool8PathEdgeE @3089 DATA
    _ZTVN2sp4tool8PathNodeE @3090 DATA
    _ZTVN2sp4tool9PathGraphE @3091 DATA
    _ZTVN2sp4tool9XMLParserE @3092 DATA
    _ZTVN2sp5audio10DummySoundE @3093 DATA
    _ZTVN2sp5audio10WinMMSoundE @3094 DATA
    _ZTVN2sp5audio11SoundDeviceE @3095 DATA
    _ZTVN2sp5audio16DummySoundDeviceE @3096 DATA
    _ZTVN2sp5audio16WinMMSoundDeviceE @3097 DATA
    _ZTVN2sp5audio5SoundE @3098 DATA
    _ZTVN2sp5scene10KDTreeNodeE @3099 DATA
    _ZTVN2sp5scene10MeshLoaderE @3100 DATA
    _ZTVN2sp5scene10OcTreeNodeE @3101 DATA
    _ZTVN2sp5scene10RenderNodeE @3102 DATA
    _ZTVN2sp5scene10SceneGraphE @3103 DATA
    _ZTVN2sp5scene11BSPTreeNodeE @3104 DATA
    _ZTVN2sp5scene11MeshLoaderXE @3105 DATA
    _ZTVN2sp5scene11SceneLoaderE @3106 DATA
    _ZTVN2sp5scene12CollisionBoxE @3107 DATA
    _ZTVN2sp5scene12MaterialNodeE @3108 DATA
    _ZTVN2sp5scene12MeshSaverB3DE @3109 DATA
    _ZTVN2sp5scene12MeshSaverOBJE @3110 DATA
    _ZTVN2sp5scene12MeshSaverSPME @3111 DATA
    _ZTVN2sp5scene12QuadTreeNodeE @3112 DATA
    _ZTVN2sp5scene13AnimationNodeE @3113 DATA
    _ZTVN2sp5scene13CollisionMeshE @3114 DATA
    _ZTVN2sp5scene13CollisionNodeE @3115 DATA
    _ZTVN2sp5scene13MeshLoader3DSE @3116 DATA
    _ZTVN2sp5scene13MeshLoaderB3DE @3117 DATA
    _ZTVN2sp5scene13MeshLoaderMD2E @3118 DATA
    _ZTVN2sp5scene13MeshLoaderMD3E @3119 DATA
    _ZTVN2sp5scene13MeshLoaderOBJE @3120 DATA
    _ZTVN2sp5scene13MeshLoaderSPME @3121 DATA
    _ZTVN2sp5scene14MeshLoaderMS3DE @3122 DATA
    _ZTVN2sp5scene15CollisionSphereE @3123 DATA
    _ZTVN2sp5scene15SceneLoaderBSP1E @3124 DATA
    _ZTVN2sp5scene15SceneLoaderBSP3E @3125 DATA
    _ZTVN2sp5scene15SceneLoaderSPSBE @3126 DATA
    _ZTVN2sp5scene16SceneGraphSimpleE @3127 DATA
    _ZTVN2sp5scene17AnimationSkeletalE @3128 DATA
    _ZTVN2sp5scene17FirstPersonCameraE @3129 DATA
    _ZTVN2sp5scene20AnimationMorphTargetE @3130 DATA
    _ZTVN2sp5scene25SceneGraphSimpleChildTreeE @3131 DATA
    _ZTVN2sp5scene4MeshE @3132 DATA
    _ZTVN2sp5scene5LightE @3133 DATA
    _ZTVN2sp5scene6CameraE @3134 DATA
    _ZTVN2sp5scene7TerrainE @3135 DATA
    _ZTVN2sp5scene8TreeNodeE @3136 DATA
    _ZTVN2sp5scene9AnimationE @3137 DATA
    _ZTVN2sp5scene9BillboardE @3138 DATA
    _ZTVN2sp5scene9CollisionE @3139 DATA
    _ZTVN2sp5scene9MeshSaverE @3140 DATA
    _ZTVN2sp5scene9SceneNodeE @3141 DATA
    _ZTVN2sp5video10ImageSaverE @3142 DATA
    _ZTVN2sp5video10MeshBufferE @3143 DATA
    _ZTVN2sp5video11ImageLoaderE @3144 DATA
    _ZTVN2sp5video11ShaderTableE @3145 DATA
    _ZTVN2sp5video12OpenGLShaderE @3146 DATA
    _ZTVN2sp5video12RenderSystemE @3147 DATA
    _ZTVN2sp5video12VertexFormatE @3148 DATA
    _ZTVN2sp5video13CgShaderTableE @3149 DATA
    _ZTVN2sp5video13GLTextureBaseE @3150 DATA
    _ZTVN2sp5video13ImageSaverBMPE @3151 DATA
    _ZTVN2sp5video13OpenGLTextureE @3152 DATA
    _ZTVN2sp5video13RenderContextE @3153 DATA
    _ZTVN2sp5video14GLBasePipelineE @3154 DATA
    _ZTVN2sp5video14ImageLoaderBMPE @3155 DATA
    _ZTVN2sp5video14ImageLoaderDDSE @3156 DATA
    _ZTVN2sp5video14ImageLoaderJPGE @3157 DATA
    _ZTVN2sp5video14ImageLoaderPCXE @3158 DATA
    _ZTVN2sp5video14ImageLoaderPNGE @3159 DATA
    _ZTVN2sp5video14ImageLoaderTGAE @3160 DATA
    _ZTVN2sp5video14MaterialStatesE @3161 DATA
    _ZTVN2sp5video15CgShaderProgramE @3162 DATA
    _ZTVN2sp5video15ComputeShaderIOE @3163 DATA
    _ZTVN2sp5video15Direct3D9ShaderE @3164 DATA
    _ZTVN2sp5video16Direct3D9TextureE @3165 DATA
    _ZTVN2sp5video16VertexFormatFullE @3166 DATA
    _ZTVN2sp5video17CgShaderProgramGLE @3167 DATA
    _ZTVN2sp5video17DummyRenderSystemE @3168 DATA
    _ZTVN2sp5video17OpenGLShaderTableE @3169 DATA
    _ZTVN2sp5video18OpenGLRenderSystemE @3170 DATA
    _ZTVN2sp5video19CgShaderProgramD3D9E @3171 DATA
    _ZTVN2sp5video19GLFramebufferObjectE @3172 DATA
    _ZTVN2sp5video19OpenGLRenderContextE @3173 DATA
    _ZTVN2sp5video19VertexFormatDefaultE @3174 DATA
    _ZTVN2sp5video19VertexFormatReducedE @3175 DATA
    _ZTVN2sp5video20DesktopRenderContextE @3176 DATA
    _ZTVN2sp5video20Direct3D9ShaderTableE @3177 DATA
    _ZTVN2sp5video20VertexFormatExtendedE @3178 DATA
    _ZTVN2sp5video21Direct3D9RenderSystemE @3179 DATA
    _ZTVN2sp5video21VertexFormatUniversalE @3180 DATA
    _ZTVN2sp5video22Direct3D9RenderContextE @3181 DATA
    _ZTVN2sp5video23GLFixedFunctionPipelineE @3182 DATA
    _ZTVN2sp5video30GLProgrammableFunctionPipelineE @3183 DATA
    _ZTVN2sp5video6ShaderE @3184 DATA
    _ZTVN2sp5video7TextureE @3185 DATA
    _ZTVN2sp7physics10StaticBodyE @3186 DATA
    _ZTVN2sp7physics18PhysicsBasicObjectE @3187 DATA
    _ZTVN2sp7physics9RigidBodyE @3188 DATA
    _ZThn156_N2sp5video13OpenGLTextureD0Ev @3189
    _ZThn156_N2sp5video13OpenGLTextureD1Ev @3190
    _ZThn228_N2sp5video18OpenGLRenderSystemD0Ev @3191
    _ZThn228_N2sp5video18OpenGLRenderSystemD1Ev @3192
    _ZTv0_n100_N2sp5video18OpenGLRenderSystem19setupMaterialStatesEPKNS0_14MaterialStatesE @3193
    _ZTv0_n112_N2sp5video18OpenGLRenderSystem17drawPrimitiveListENS0_17ERenderPrimitivesEPKNS_5scene13SMeshVertex3DEjPKvjPSt6vectorINS0_19SMeshSurfaceTextureESaISA_EE @3194
    _ZTv0_n116_N2sp5video23GLFixedFunctionPipeline11updateLightEjNS_5scene12ELightModelsEbRKNS_3dim8vector3dIfEEfffff @3195
    _ZTv0_n120_N2sp5video14GLBasePipeline18createVertexBufferERPv @3196
    _ZTv0_n124_N2sp5video14GLBasePipeline17createIndexBufferERPv @3197
    _ZTv0_n128_N2sp5video14GLBasePipeline18deleteVertexBufferERPv @3198
    _ZTv0_n12_N2sp5video14GLBasePipelineD0Ev @3199
    _ZTv0_n12_N2sp5video14GLBasePipelineD1Ev @3200
    _ZTv0_n12_N2sp5video18OpenGLRenderSystemD0Ev @3201
    _ZTv0_n12_N2sp5video18OpenGLRenderSystemD1Ev @3202
    _ZTv0_n12_N2sp5video23GLFixedFunctionPipelineD0Ev @3203
    _ZTv0_n12_N2sp5video23GLFixedFunctionPipelineD1Ev @3204
    _ZTv0_n12_N2sp5video30GLProgrammableFunctionPipelineD0Ev @3205
    _ZTv0_n12_N2sp5video30GLProgrammableFunctionPipelineD1Ev @3206
    _ZTv0_n132_N2sp5video14GLBasePipeline17deleteIndexBufferERPv @3207
    _ZTv0_n136_N2sp5video14GLBasePipeline18updateVertexBufferEPvRKNS_3dim15UniversalBufferEPKNS0_12VertexFormatENS0_16EMeshBufferUsageE @3208
    _ZTv0_n140_N2sp5video14GLBasePipeline17updateIndexBufferEPvRKNS_3dim15UniversalBufferEPKNS0_11IndexFormatENS0_16EMeshBufferUsageE @3209
    _ZTv0_n144_N2sp5video14GLBasePipeline25updateVertexBufferElementEPvRKNS_3dim15UniversalBufferEj @3210
    _ZTv0_n148_N2sp5video14GLBasePipeline24updateIndexBufferElementEPvRKNS_3dim15UniversalBufferEj @3211
    _ZTv0_n152_N2sp5video18OpenGLRenderSystem14drawMeshBufferEPKNS0_10MeshBufferE @3212
    _ZTv0_n156_N2sp5video23GLFixedFunctionPipeline14setRenderStateENS0_13ERenderStatesEi @3213
    _ZTv0_n160_NK2sp5video23GLFixedFunctionPipeline14getRenderStateENS0_13ERenderStatesE @3214
    _ZTv0_n164_N2sp5video23GLFixedFunctionPipeline25disableTriangleListStatesEv @3215
    _ZTv0_n168_N2sp5video23GLFixedFunctionPipeline21disable3DRenderStatesEv @3216
    _ZTv0_n16_N2sp5video18OpenGLRenderSystem18setupConfigurationEv @3217
    _ZTv0_n16_N2sp5video18OpenGLRenderSystemD0Ev @3218
    _ZTv0_n16_N2sp5video18OpenGLRenderSystemD1Ev @3219
    _ZTv0_n16_N2sp5video23GLFixedFunctionPipelineD0Ev @3220
    _ZTv0_n16_N2sp5video23GLFixedFunctionPipelineD1Ev @3221
    _ZTv0_n16_N2sp5video30GLProgrammableFunctionPipelineD0Ev @3222
    _ZTv0_n16_N2sp5video30GLProgrammableFunctionPipelineD1Ev @3223
    _ZTv0_n172_N2sp5video23GLFixedFunctionPipeline16disableTexturingEv @3224
    _ZTv0_n176_N2sp5video14GLBasePipeline23setDefaultAlphaBlendingEv @3225
    _ZTv0_n180_N2sp5video14GLBasePipeline14enableBlendingEv @3226
    _ZTv0_n184_N2sp5video14GLBasePipeline15disableBlendingEv @3227
    _ZTv0_n192_N2sp5video23GLFixedFunctionPipeline21addDynamicLightSourceEjNS_5scene12ELightModelsERNS0_5colorES5_S5_fff @3228
    _ZTv0_n196_N2sp5video23GLFixedFunctionPipeline14setLightStatusEjb @3229
    _ZTv0_n200_N2sp5video23GLFixedFunctionPipeline13setLightColorEjRKNS0_5colorES4_S4_ @3230
    _ZTv0_n204_N2sp5video23GLFixedFunctionPipeline6setFogENS0_9EFogTypesE @3231
    _ZTv0_n212_N2sp5video23GLFixedFunctionPipeline11setFogColorERKNS0_5colorE @3232
    _ZTv0_n220_N2sp5video23GLFixedFunctionPipeline11setFogRangeEfffNS0_9EFogModesE @3233
    _ZTv0_n228_N2sp5video18OpenGLRenderSystem18clearStencilBufferEv @3234
    _ZTv0_n232_N2sp5video18OpenGLRenderSystem23drawStencilShadowVolumeEPKNS_3dim8vector3dIfEEibb @3235
    _ZTv0_n236_N2sp5video18OpenGLRenderSystem17drawStencilShadowERKNS0_5colorE @3236
    _ZTv0_n240_N2sp5video23GLFixedFunctionPipeline12setClipPlaneEjRKNS_3dim7plane3dIfEEb @3237
    _ZTv0_n244_N2sp5video30GLProgrammableFunctionPipeline17createShaderTableEPNS0_12VertexFormatE @3238
    _ZTv0_n24_NK2sp5video14GLBasePipeline11getRendererEv @3239
    _ZTv0_n256_N2sp5video30GLProgrammableFunctionPipeline12createShaderEPNS0_11ShaderTableENS0_12EShaderTypesENS0_15EShaderVersionsERKSt6vectorINS_2io6stringIcEESaIS9_EERKS9_ @3240
    _ZTv0_n268_N2sp5video18OpenGLRenderSystem14createCgShaderEPNS0_11ShaderTableENS0_12EShaderTypesENS0_15EShaderVersionsERKSt6vectorINS_2io6stringIcEESaIS9_EERKS9_ @3241
    _ZTv0_n276_N2sp5video30GLProgrammableFunctionPipeline13unbindShadersEv @3242
    _ZTv0_n28_NK2sp5video14GLBasePipeline10getVersionEv @3243
    _ZTv0_n292_N2sp5video14GLBasePipeline12pushViewportEv @3244
    _ZTv0_n296_N2sp5video14GLBasePipeline11popViewportEv @3245
    _ZTv0_n308_N2sp5video23GLFixedFunctionPipeline14beginDrawing2DEv @3246
    _ZTv0_n312_N2sp5video23GLFixedFunctionPipeline12endDrawing2DEv @3247
    _ZTv0_n316_N2sp5video23GLFixedFunctionPipeline14beginDrawing3DEv @3248
    _ZTv0_n320_N2sp5video23GLFixedFunctionPipeline12endDrawing3DEv @3249
    _ZTv0_n324_N2sp5video14GLBasePipeline11setBlendingENS0_14EBlendingTypesES2_ @3250
    _ZTv0_n328_N2sp5video14GLBasePipeline11setClippingEbRKNS_3dim7point2dIiEERKNS2_6size2dIiEE @3251
    _ZTv0_n32_NK2sp5video14GLBasePipeline9getVendorEv @3252
    _ZTv0_n32_NK2sp5video30GLProgrammableFunctionPipeline16getShaderVersionEv @3253
    _ZTv0_n332_N2sp5video14GLBasePipeline11setViewportERKNS_3dim7point2dIiEERKNS2_6size2dIiEE @3254
    _ZTv0_n336_N2sp5video30GLProgrammableFunctionPipeline15setRenderTargetEPNS0_7TextureE @3255
    _ZTv0_n344_N2sp5video14GLBasePipeline11setLineSizeEi @3256
    _ZTv0_n348_N2sp5video23GLFixedFunctionPipeline12setPointSizeEi @3257
    _ZTv0_n352_N2sp5video18OpenGLRenderSystem11draw2DImageEPNS0_7TextureERKNS_3dim7point2dIiEERKNS0_5colorE @3258
    _ZTv0_n356_N2sp5video18OpenGLRenderSystem11draw2DImageEPNS0_7TextureERKNS_3dim6rect2dIiEERKNS5_IfEERKNS0_5colorE @3259
    _ZTv0_n360_N2sp5video18OpenGLRenderSystem11draw2DImageEPNS0_7TextureERKNS_3dim7point2dIiEEffRKNS0_5colorE @3260
    _ZTv0_n368_N2sp5video18OpenGLRenderSystem11draw2DImageEPNS0_7TextureERKNS_3dim7point2dIiEES8_S8_S8_RKNS5_IfEESB_SB_SB_RKNS0_5colorESE_SE_SE_ @3261
    _ZTv0_n36_NK2sp5video14GLBasePipeline16getShaderVersionEv @3262
    _ZTv0_n36_NK2sp5video30GLProgrammableFunctionPipeline16getShaderVersionEv @3263
    _ZTv0_n372_NK2sp5video23GLFixedFunctionPipeline13getPixelColorERKNS_3dim7point2dIiEE @3264
    _ZTv0_n376_NK2sp5video18OpenGLRenderSystem13getPixelDepthERKNS_3dim7point2dIiEE @3265
    _ZTv0_n380_N2sp5video18OpenGLRenderSystem11draw2DPointERKNS_3dim7point2dIiEERKNS0_5colorE @3266
    _ZTv0_n384_N2sp5video18OpenGLRenderSystem10draw2DLineERKNS_3dim7point2dIiEES6_RKNS0_5colorE @3267
    _ZTv0_n388_N2sp5video18OpenGLRenderSystem10draw2DLineERKNS_3dim7point2dIiEES6_RKNS0_5colorES9_ @3268
    _ZTv0_n392_N2sp5video18OpenGLRenderSystem15draw2DRectangleERKNS_3dim6rect2dIiEERKNS0_5colorEb @3269
    _ZTv0_n396_N2sp5video18OpenGLRenderSystem15draw2DRectangleERKNS_3dim6rect2dIiEERKNS0_5colorES9_S9_S9_b @3270
    _ZTv0_n408_N2sp5video18OpenGLRenderSystem13draw2DPolygonENS0_17ERenderPrimitivesEPKNS_5scene18SPrimitiveVertex2DEj @3271
    _ZTv0_n40_NK2sp5video18OpenGLRenderSystem17queryVideoSupportENS0_20EVideoFeatureQueriesE @3272
    _ZTv0_n412_N2sp5video23GLFixedFunctionPipeline18draw2DPolygonImageENS0_17ERenderPrimitivesEPNS0_7TextureEPKNS_5scene18SPrimitiveVertex2DEj @3273
    _ZTv0_n416_N2sp5video18OpenGLRenderSystem11draw3DPointERKNS_3dim8vector3dIfEERKNS0_5colorE @3274
    _ZTv0_n420_N2sp5video18OpenGLRenderSystem10draw3DLineERKNS_3dim8vector3dIfEES6_RKNS0_5colorE @3275
    _ZTv0_n424_N2sp5video18OpenGLRenderSystem10draw3DLineERKNS_3dim8vector3dIfEES6_RKNS0_5colorES9_ @3276
    _ZTv0_n428_N2sp5video18OpenGLRenderSystem13draw3DEllipseERKNS_3dim8vector3dIfEES6_RKNS2_6size2dIfEERKNS0_5colorE @3277
    _ZTv0_n432_N2sp5video18OpenGLRenderSystem14draw3DTriangleEPNS0_7TextureERKNS_3dim10triangle3dIfNS4_8vector3dIfEEEERKNS0_5colorE @3278
    _ZTv0_n444_N2sp5video14GLBasePipeline11loadTextureEPNS0_11ImageLoaderE @3279
    _ZTv0_n44_NK2sp5video14GLBasePipeline21queryExtensionSupportERKNS_2io6stringIcEE @3280
    _ZTv0_n460_N2sp5video14GLBasePipeline11copyTextureEPKNS0_7TextureE @3281
    _ZTv0_n468_N2sp5video14GLBasePipeline13createTextureERKNS_3dim6size2dIiEENS0_13EPixelFormatsEPKhRKNS_2io6stringIcEE @3282
    _ZTv0_n472_N2sp5video23GLFixedFunctionPipeline16createScreenShotERKNS_3dim7point2dIiEENS2_6size2dIiEE @3283
    _ZTv0_n476_N2sp5video23GLFixedFunctionPipeline16createScreenShotEPNS0_7TextureERKNS_3dim7point2dIiEE @3284
    _ZTv0_n48_NK2sp5video23GLFixedFunctionPipeline16getMultitexCountEv @3285
    _ZTv0_n500_N2sp5video18OpenGLRenderSystem8loadFontERKNS_2io6stringIcEENS_3dim6size2dIiEEi @3286
    _ZTv0_n512_N2sp5video18OpenGLRenderSystem10deleteFontEPNS0_4FontE @3287
    _ZTv0_n516_N2sp5video18OpenGLRenderSystem10draw2DTextEPNS0_4FontERKNS_3dim7point2dIiEERKNS_2io6stringIcEERKNS0_5colorE @3288
    _ZTv0_n520_N2sp5video18OpenGLRenderSystem10draw3DTextEPNS0_4FontERKNS_3dim7matrix4IfEERKNS_2io6stringIcEERKNS0_5colorE @3289
    _ZTv0_n524_N2sp5video23GLFixedFunctionPipeline21updateModelviewMatrixEv @3290
    _ZTv0_n52_NK2sp5video14GLBasePipeline23getMaxAnisotropicFilterEv @3291
    _ZTv0_n532_N2sp5video23GLFixedFunctionPipeline19setProjectionMatrixERKNS_3dim7matrix4IfEE @3292
    _ZTv0_n536_N2sp5video23GLFixedFunctionPipeline13setViewMatrixERKNS_3dim7matrix4IfEE @3293
    _ZTv0_n540_N2sp5video14GLBasePipeline14setWorldMatrixERKNS_3dim7matrix4IfEE @3294
    _ZTv0_n544_N2sp5video23GLFixedFunctionPipeline16setTextureMatrixERKNS_3dim7matrix4IfEEh @3295
    _ZTv0_n548_N2sp5video18OpenGLRenderSystem14setColorMatrixERKNS_3dim7matrix4IfEE @3296
    _ZTv0_n556_NK2sp5video14GLBasePipeline13getViewMatrixEv @3297
    _ZTv0_n56_NK2sp5video23GLFixedFunctionPipeline16getMaxLightCountEv @3298
    _ZTv0_n576_N2sp5video23GLFixedFunctionPipeline18setDrawingMatrix2DEv @3299
    _ZTv0_n600_N2sp5video14GLBasePipeline17createTextureFontEPNS0_7TextureERKSt6vectorINS_3dim6rect2dIiEESaIS7_EEi @3300
    _ZTv0_n60_NK2sp5video14GLBasePipeline23getProjectionMatrixTypeEv @3301
    _ZTv0_n68_N2sp5video14GLBasePipeline12clearBuffersEi @3302
    _ZTv0_n72_N2sp5video23GLFixedFunctionPipeline12setShadeModeENS0_15EShadeModeTypesE @3303
    _ZTv0_n76_N2sp5video14GLBasePipeline12setFrontFaceEb @3304
    _ZTv0_n80_N2sp5video14GLBasePipeline13setClearColorERKNS0_5colorE @3305
    _ZTv0_n84_N2sp5video14GLBasePipeline12setColorMaskEbbbb @3306
    _ZTv0_n88_N2sp5video14GLBasePipeline12setDepthMaskEb @3307
    _ZTv0_n92_N2sp5video18OpenGLRenderSystem8setVsyncEb @3308
    _ZTv0_n96_N2sp5video18OpenGLRenderSystem12setAntiAliasEb @3309
